(dp1
S'files'
p2
(dp3
S'atcatalog_views_language'
p4
(dp5
S'index'
p6
(dp7
S'html_filename'
p8
S'atcatalog_views_language.html'
p9
sS'name'
p10
S'atcatalog/views/language'
p11
sS'nums'
p12
ccopy_reg
_reconstructor
p13
(ccoverage.results
Numbers
p14
c__builtin__
object
p15
NtRp16
(dp17
S'n_files'
p18
I1
sS'n_branches'
p19
I0
sS'n_statements'
p20
I6
sS'n_excluded'
p21
I0
sS'n_partial_branches'
p22
I0
sS'n_missing'
p23
I0
sS'n_missing_branches'
p24
I0
sbssS'hash'
p25
S'\xb6\xad\x81^\x19\xadh\x9fzY\x8e\xa60\x82\x8b\xfb'
p26
ssS'atcatalog_data_dbcrud'
p27
(dp28
S'index'
p29
(dp30
S'html_filename'
p31
S'atcatalog_data_dbcrud.html'
p32
sS'name'
p33
S'atcatalog/data/dbcrud'
p34
sS'nums'
p35
g13
(g14
g15
NtRp36
(dp37
g18
I1
sg19
I18
sg20
I20
sg21
I5
sg22
I0
sg23
I20
sg24
I18
sbssS'hash'
p38
S'\xf95\x1e\xb7Q_\xd7qy\x97\xf7\xc9P\xb0B;'
p39
ssS'atcatalog_model_atcaccess'
p40
(dp41
S'index'
p42
(dp43
g31
S'atcatalog_model_atcaccess.html'
p44
sg33
S'atcatalog/model/atcaccess'
p45
sg35
g13
(g14
g15
NtRp46
(dp47
g18
I1
sg19
I10
sg20
I33
sg21
I0
sg22
I0
sg23
I33
sg24
I10
sbssS'hash'
p48
S'\xb7\x00w\x8fD\xe0\x8dE\x87\xe42\x9f\t\xe2\xcd\xf9'
p49
ssS'atcatalog_views_sentence'
p50
(dp51
g6
(dp52
S'html_filename'
p53
S'atcatalog_views_sentence.html'
p54
sS'name'
p55
S'atcatalog/views/sentence'
p56
sS'nums'
p57
g13
(g14
g15
NtRp58
(dp59
g18
I1
sg19
I0
sg20
I12
sg21
I0
sg22
I0
sg23
I0
sg24
I0
sbssg25
S'<\x1dH\xe1\xefq\xec_\xb0%\xc9?SY\x06U'
p60
ssS'atcatalog_data_model_database'
p61
(dp62
S'index'
p63
(dp64
S'html_filename'
p65
S'atcatalog_data_model_database.html'
p66
sS'name'
p67
S'atcatalog/data/model_database'
p68
sS'nums'
p69
g13
(g14
g15
NtRp70
(dp71
g18
I1
sg19
I0
sg20
I38
sg21
I0
sg22
I0
sg23
I38
sg24
I0
sbssS'hash'
p72
S'\x06\xe9\xe2b\xa1\xcc\x9c\xb6?\xa9#65\xc5\x19\xd3'
p73
ssS'atcatalog___init__'
p74
(dp75
g6
(dp76
g31
S'atcatalog___init__.html'
p77
sg33
S'atcatalog/__init__'
p78
sg35
g13
(g14
g15
NtRp79
(dp80
g18
I1
sg19
I0
sg20
I6
sg21
I0
sg22
I0
sg23
I0
sg24
I0
sbssg25
S'\xe3\xaaO\xe9\x9e\xfdI\xa6]\x7fJ\xf6o\x1e\xb9\x8a'
p81
ssS'atcatalog_data_const'
p82
(dp83
S'index'
p84
(dp85
g31
S'atcatalog_data_const.html'
p86
sg33
S'atcatalog/data/const'
p87
sg35
g13
(g14
g15
NtRp88
(dp89
g18
I1
sg19
I0
sg20
I17
sg21
I0
sg22
I0
sg23
I0
sg24
I0
sbssS'hash'
p90
S'\x12\x0f\x0c\x82\x07\xf9\xd6\x1d\x17\x13\x86%7\xd2+_'
p91
ssS'atcatalog_tests_testmodel'
p92
(dp93
S'index'
p94
(dp95
S'html_filename'
p96
S'atcatalog_tests_testmodel.html'
p97
sS'name'
p98
S'atcatalog/tests/testmodel'
p99
sS'nums'
p100
g13
(g14
g15
NtRp101
(dp102
g18
I1
sg19
I0
sg20
I16
sg21
I2
sg22
I0
sg23
I6
sg24
I0
sbssS'hash'
p103
S'R\x9dK \xed\xa8\x1eSg*\x9d\x08\xab\xc4\xf1l'
p104
ssS'atcatalog_tests_testlanguages'
p105
(dp106
g6
(dp107
S'html_filename'
p108
S'atcatalog_tests_testlanguages.html'
p109
sS'name'
p110
S'atcatalog/tests/testlanguages'
p111
sS'nums'
p112
g13
(g14
g15
NtRp113
(dp114
g18
I1
sg19
I2
sg20
I24
sg21
I2
sg22
I0
sg23
I0
sg24
I0
sbssg25
S"j6\xd2')\x8c\xf3\xe7\x85H\x06\xae^\x8e<a"
p115
ssS'atcatalog_views_languages'
p116
(dp117
g6
(dp118
S'html_filename'
p119
S'atcatalog_views_languages.html'
p120
sS'name'
p121
S'atcatalog/views/languages'
p122
sS'nums'
p123
g13
(g14
g15
NtRp124
(dp125
g18
I1
sg19
I0
sg20
I6
sg21
I0
sg22
I0
sg23
I0
sg24
I0
sbssg25
S'#\xaf\xed\xbc\xa2p\x04\xc9\xff\x0c}\xf7\xae\xa5\x96o'
p126
ssS'atcatalog_data___init__'
p127
(dp128
g6
(dp129
S'html_filename'
p130
S'atcatalog_data___init__.html'
p131
sS'name'
p132
S'atcatalog/data/__init__'
p133
sS'nums'
p134
g13
(g14
g15
NtRp135
(dp136
g18
I1
sg19
I0
sg20
I1
sg21
I0
sg22
I0
sg23
I0
sg24
I0
sbssg25
S'\xb9Z\x86\xde\x18\xa0\xc6\x95,I\xbeE\xefA\x16\xe9'
p137
ssS'atcatalog_data_database'
p138
(dp139
g94
(dp140
S'html_filename'
p141
S'atcatalog_data_database.html'
p142
sS'name'
p143
S'atcatalog/data/database'
p144
sS'nums'
p145
g13
(g14
g15
NtRp146
(dp147
g18
I1
sg19
I0
sg20
I0
sg21
I0
sg22
I0
sg23
I0
sg24
I0
sbssg103
S'\xe5P\x11)^\xf4>1D.\x0e\x0b\xa1\xf8[+'
p148
ssS'atcatalog_data_dbfill'
p149
(dp150
S'index'
p151
(dp152
g31
S'atcatalog_data_dbfill.html'
p153
sg33
S'atcatalog/data/dbfill'
p154
sg35
g13
(g14
g15
NtRp155
(dp156
g18
I1
sg19
I10
sg20
I44
sg21
I5
sg22
I2
sg23
I28
sg24
I6
sbssS'hash'
p157
S'V\x88\x90\x96tnT\xd2\x073\x0eV\xeb\xa0\x036'
p158
ssS'atcatalog_model___init__'
p159
(dp160
g42
(dp161
g31
S'atcatalog_model___init__.html'
p162
sg33
S'atcatalog/model/__init__'
p163
sg35
g13
(g14
g15
NtRp164
(dp165
g18
I1
sg19
I0
sg20
I0
sg21
I0
sg22
I0
sg23
I0
sg24
I0
sbssg48
S'\x19g\xdfM\x1a\x019\xaf\x1baIeR\xe5u\xa7'
p166
ssS'atcatalog_data_dbsetup'
p167
(dp168
g151
(dp169
g31
S'atcatalog_data_dbsetup.html'
p170
sg33
S'atcatalog/data/dbsetup'
p171
sg35
g13
(g14
g15
NtRp172
(dp173
g18
I1
sg19
I2
sg20
I52
sg21
I2
sg22
I0
sg23
I18
sg24
I0
sbssg157
S"\xd6f\x83'\xa9\xf3Q{\xbe\x9c{\xfd?\xe7+>"
p174
ssS'atcatalog_data_create_database'
p175
(dp176
g6
(dp177
S'html_filename'
p178
S'atcatalog_data_create_database.html'
p179
sS'name'
p180
S'atcatalog/data/create_database'
p181
sS'nums'
p182
g13
(g14
g15
NtRp183
(dp184
g18
I1
sg19
I0
sg20
I38
sg21
I0
sg22
I0
sg23
I38
sg24
I0
sbssg25
S'<T\xa3M\xdf\x8e\xf8$]\x94$\xf1\x94\x1c\x15\xdb'
p185
ssS'atcatalog_data_fake'
p186
(dp187
g6
(dp188
S'html_filename'
p189
S'atcatalog_data_fake.html'
p190
sS'name'
p191
S'atcatalog/data/fake'
p192
sS'nums'
p193
g13
(g14
g15
NtRp194
(dp195
g18
I1
sg19
I0
sg20
I9
sg21
I0
sg22
I0
sg23
I0
sg24
I0
sbssg25
S"\xda'S\xfd\xfe\x86\x89N\xa1\xac\n\xd7T\xe8h\xb1"
p196
ssS'atcatalog_model_atcmodel'
p197
(dp198
g42
(dp199
g31
S'atcatalog_model_atcmodel.html'
p200
sg33
S'atcatalog/model/atcmodel'
p201
sg35
g13
(g14
g15
NtRp202
(dp203
g18
I1
sg19
I16
sg20
I96
sg21
I2
sg22
I4
sg23
I17
sg24
I4
sbssg48
S'5\xf2\xb3\xf2\x8e\x83\x1a\xbf2\xd4?\xdf\x1b\xc1\xdcw'
p204
ssS'atcatalog_tests_testdbsetup'
p205
(dp206
S'index'
p207
(dp208
g31
S'atcatalog_tests_testdbsetup.html'
p209
sg33
S'atcatalog/tests/testdbsetup'
p210
sg35
g13
(g14
g15
NtRp211
(dp212
g18
I1
sg19
I2
sg20
I47
sg21
I2
sg22
I0
sg23
I13
sg24
I2
sbssS'hash'
p213
S'Y\xd4\x89l\xf1p\xac\x89\xe1u\xf0Y\xdaA\x05V'
p214
ssS'atcatalog_data_model'
p215
(dp216
S'index'
p217
(dp218
S'html_filename'
p219
S'atcatalog_data_model.html'
p220
sS'name'
p221
S'atcatalog/data/model'
p222
sS'nums'
p223
g13
(g14
g15
NtRp224
(dp225
g18
I1
sg19
I2
sg20
I32
sg21
I2
sg22
I0
sg23
I32
sg24
I2
sbssS'hash'
p226
S'\x7fM\xe6a\x96\x13\xbb)\xfd\xd3$8\x8b\tM\x81'
p227
ssS'atcatalog_data_gendata'
p228
(dp229
S'index'
p230
(dp231
g31
S'atcatalog_data_gendata.html'
p232
sg33
S'atcatalog/data/gendata'
p233
sg35
g13
(g14
g15
NtRp234
(dp235
g18
I1
sg19
I22
sg20
I128
sg21
I6
sg22
I0
sg23
I81
sg24
I22
sbssS'hash'
p236
S'"w\r\x89\x97\xf1\x8f\xb8\xc2]S\t\xf3\xed\xb3\xb5'
p237
ssS'atcatalog_views___init__'
p238
(dp239
g6
(dp240
g178
S'atcatalog_views___init__.html'
p241
sg180
S'atcatalog/views/__init__'
p242
sg182
g13
(g14
g15
NtRp243
(dp244
g18
I1
sg19
I0
sg20
I0
sg21
I0
sg22
I0
sg23
I0
sg24
I0
sbssg25
S'?l 2\x1b\xae\xe1\xf1\xe2\x1a\xb6]i\x04\xe6\xb2'
p245
ssS'atcatalog_tests___init__'
p246
(dp247
g6
(dp248
g178
S'atcatalog_tests___init__.html'
p249
sg180
S'atcatalog/tests/__init__'
p250
sg182
g13
(g14
g15
NtRp251
(dp252
g18
I1
sg19
I0
sg20
I0
sg21
I0
sg22
I0
sg23
I0
sg24
I0
sbssg25
S'?l 2\x1b\xae\xe1\xf1\xe2\x1a\xb6]i\x04\xe6\xb2'
p253
ssS'atcatalog_data_origmodel'
p254
(dp255
S'index'
p256
(dp257
g96
S'atcatalog_data_origmodel.html'
p258
sg98
S'atcatalog/data/origmodel'
p259
sg100
g13
(g14
g15
NtRp260
(dp261
g18
I1
sg19
I0
sg20
I38
sg21
I0
sg22
I0
sg23
I38
sg24
I0
sbssS'hash'
p262
S'\x06\xe9\xe2b\xa1\xcc\x9c\xb6?\xa9#65\xc5\x19\xd3'
p263
ssS'atcatalog_data_csvinput'
p264
(dp265
S'index'
p266
(dp267
g31
S'atcatalog_data_csvinput.html'
p268
sg33
S'atcatalog/data/csvinput'
p269
sg35
g13
(g14
g15
NtRp270
(dp271
g18
I1
sg19
I2
sg20
I23
sg21
I2
sg22
I0
sg23
I23
sg24
I2
sbssS'hash'
p272
S'`Z\xd7\xa7\xe7\x7f\x8a\xc4\xb5\x17\x7f\xaej\xa1@;'
p273
ssS'atcatalog_tests_testsentence'
p274
(dp275
S'index'
p276
(dp277
S'html_filename'
p278
S'atcatalog_tests_testsentence.html'
p279
sS'name'
p280
S'atcatalog/tests/testsentence'
p281
sS'nums'
p282
g13
(g14
g15
NtRp283
(dp284
g18
I1
sg19
I0
sg20
I42
sg21
I2
sg22
I0
sg23
I0
sg24
I0
sbssS'hash'
p285
S'c=B\x93\xdf\xde\xbe\x89!\xff\x9eK\xf2klT'
p286
ssS'atcatalog_tests_testlanguage'
p287
(dp288
S'index'
p289
(dp290
g108
S'atcatalog_tests_testlanguage.html'
p291
sg110
S'atcatalog/tests/testlanguage'
p292
sg112
g13
(g14
g15
NtRp293
(dp294
g18
I1
sg19
I2
sg20
I25
sg21
I2
sg22
I0
sg23
I0
sg24
I0
sbssS'hash'
p295
S')\x83\xc4\xd0\x93+\xbfF\x974e\xb6%\x8a\xe1\xca'
p296
sssS'version'
p297
S'3.7.1'
p298
sS'settings'
p299
S'm^\xd1\rt\xba\x05\xc7,Bm\x10@\xf0\\\x9a'
p300
sS'format'
p301
I1
s.