(dp1
S'files'
p2
(dp3
S'atcatalog_views_language'
p4
(dp5
S'index'
p6
(dp7
S'html_filename'
p8
S'atcatalog_views_language.html'
p9
sS'name'
p10
S'atcatalog/views/language'
p11
sS'nums'
p12
ccopy_reg
_reconstructor
p13
(ccoverage.results
Numbers
p14
c__builtin__
object
p15
NtRp16
(dp17
S'n_files'
p18
I1
sS'n_branches'
p19
I0
sS'n_statements'
p20
I8
sS'n_excluded'
p21
I0
sS'n_partial_branches'
p22
I0
sS'n_missing'
p23
I0
sS'n_missing_branches'
p24
I0
sbssS'hash'
p25
S'"\x1a\xb2Uj*\xdb\'a\xc4\xfb}w\x10QA'
p26
ssS'atcatalog_data_dbcrud'
p27
(dp28
S'index'
p29
(dp30
S'html_filename'
p31
S'atcatalog_data_dbcrud.html'
p32
sS'name'
p33
S'atcatalog/data/dbcrud'
p34
sS'nums'
p35
g13
(g14
g15
NtRp36
(dp37
g18
I1
sg19
I18
sg20
I20
sg21
I5
sg22
I0
sg23
I20
sg24
I18
sbssS'hash'
p38
S'\xf95\x1e\xb7Q_\xd7qy\x97\xf7\xc9P\xb0B;'
p39
ssS'atcatalog_model_atcaccess'
p40
(dp41
S'index'
p42
(dp43
g31
S'atcatalog_model_atcaccess.html'
p44
sg33
S'atcatalog/model/atcaccess'
p45
sg35
g13
(g14
g15
NtRp46
(dp47
g18
I1
sg19
I10
sg20
I33
sg21
I0
sg22
I0
sg23
I33
sg24
I10
sbssS'hash'
p48
S'\xb7\x00w\x8fD\xe0\x8dE\x87\xe42\x9f\t\xe2\xcd\xf9'
p49
ssS'atcatalog_views_sentence'
p50
(dp51
g6
(dp52
S'html_filename'
p53
S'atcatalog_views_sentence.html'
p54
sS'name'
p55
S'atcatalog/views/sentence'
p56
sS'nums'
p57
g13
(g14
g15
NtRp58
(dp59
g18
I1
sg19
I0
sg20
I16
sg21
I0
sg22
I0
sg23
I0
sg24
I0
sbssg25
S'G{"2\x968\xc4\xba\xd1\x97\xdf\xc6\xcb\x94R\xda'
p60
ssS'atcatalog_data_model_database'
p61
(dp62
S'index'
p63
(dp64
S'html_filename'
p65
S'atcatalog_data_model_database.html'
p66
sS'name'
p67
S'atcatalog/data/model_database'
p68
sS'nums'
p69
g13
(g14
g15
NtRp70
(dp71
g18
I1
sg19
I0
sg20
I38
sg21
I0
sg22
I0
sg23
I38
sg24
I0
sbssS'hash'
p72
S'\x06\xe9\xe2b\xa1\xcc\x9c\xb6?\xa9#65\xc5\x19\xd3'
p73
ssS'atcatalog___init__'
p74
(dp75
g6
(dp76
g31
S'atcatalog___init__.html'
p77
sg33
S'atcatalog/__init__'
p78
sg35
g13
(g14
g15
NtRp79
(dp80
g18
I1
sg19
I0
sg20
I6
sg21
I0
sg22
I0
sg23
I0
sg24
I0
sbssg25
S'\xe3\xaaO\xe9\x9e\xfdI\xa6]\x7fJ\xf6o\x1e\xb9\x8a'
p81
ssS'atcatalog_tests_testdbfill'
p82
(dp83
S'index'
p84
(dp85
S'html_filename'
p86
S'atcatalog_tests_testdbfill.html'
p87
sS'name'
p88
S'atcatalog/tests/testdbfill'
p89
sS'nums'
p90
g13
(g14
g15
NtRp91
(dp92
g18
I1
sg19
I0
sg20
I37
sg21
I0
sg22
I0
sg23
I0
sg24
I0
sbssS'hash'
p93
S'\x7f[8U\x91a\x91\x8d\xeaX\x14\xcbP0\xf4r'
p94
ssS'atcatalog_data_const'
p95
(dp96
S'index'
p97
(dp98
S'html_filename'
p99
S'atcatalog_data_const.html'
p100
sS'name'
p101
S'atcatalog/data/const'
p102
sS'nums'
p103
g13
(g14
g15
NtRp104
(dp105
g18
I1
sg19
I0
sg20
I20
sg21
I0
sg22
I0
sg23
I0
sg24
I0
sbssS'hash'
p106
S'\x93N\x91\xb6\xd59\xee\x0e\xf4\x7f9\xa2\xf8\xbfx\x06'
p107
ssS'atcatalog_tests_testmodel'
p108
(dp109
S'index'
p110
(dp111
S'html_filename'
p112
S'atcatalog_tests_testmodel.html'
p113
sS'name'
p114
S'atcatalog/tests/testmodel'
p115
sS'nums'
p116
g13
(g14
g15
NtRp117
(dp118
g18
I1
sg19
I0
sg20
I16
sg21
I2
sg22
I0
sg23
I6
sg24
I0
sbssS'hash'
p119
S'R\x9dK \xed\xa8\x1eSg*\x9d\x08\xab\xc4\xf1l'
p120
ssS'atcatalog_tests_testlanguages'
p121
(dp122
g6
(dp123
g8
S'atcatalog_tests_testlanguages.html'
p124
sg10
S'atcatalog/tests/testlanguages'
p125
sg12
g13
(g14
g15
NtRp126
(dp127
g18
I1
sg19
I2
sg20
I24
sg21
I2
sg22
I0
sg23
I0
sg24
I0
sbssg25
S'\xddM\xfd\xb7\xd1\x1b&B\x08\xf1K\xb9S\xf5qt'
p128
ssS'atcatalog_views_languages'
p129
(dp130
g6
(dp131
S'html_filename'
p132
S'atcatalog_views_languages.html'
p133
sS'name'
p134
S'atcatalog/views/languages'
p135
sS'nums'
p136
g13
(g14
g15
NtRp137
(dp138
g18
I1
sg19
I0
sg20
I7
sg21
I0
sg22
I0
sg23
I0
sg24
I0
sbssg25
S'\xd8;}3\x13\xdf=\x85\xe3\xb23\xb0\xb3\xd4dM'
p139
ssS'atcatalog_data___init__'
p140
(dp141
g6
(dp142
S'html_filename'
p143
S'atcatalog_data___init__.html'
p144
sS'name'
p145
S'atcatalog/data/__init__'
p146
sS'nums'
p147
g13
(g14
g15
NtRp148
(dp149
g18
I1
sg19
I0
sg20
I1
sg21
I0
sg22
I0
sg23
I0
sg24
I0
sbssg25
S'\xb9Z\x86\xde\x18\xa0\xc6\x95,I\xbeE\xefA\x16\xe9'
p150
ssS'atcatalog_data_database'
p151
(dp152
g110
(dp153
S'html_filename'
p154
S'atcatalog_data_database.html'
p155
sS'name'
p156
S'atcatalog/data/database'
p157
sS'nums'
p158
g13
(g14
g15
NtRp159
(dp160
g18
I1
sg19
I0
sg20
I0
sg21
I0
sg22
I0
sg23
I0
sg24
I0
sbssg119
S'\xe5P\x11)^\xf4>1D.\x0e\x0b\xa1\xf8[+'
p161
ssS'atcatalog_data_dbfill'
p162
(dp163
S'index'
p164
(dp165
g86
S'atcatalog_data_dbfill.html'
p166
sg88
S'atcatalog/data/dbfill'
p167
sg90
g13
(g14
g15
NtRp168
(dp169
g18
I1
sg19
I6
sg20
I27
sg21
I2
sg22
I0
sg23
I0
sg24
I0
sbssS'hash'
p170
S'\x05\xe5\x1b\x18\xb7\xc2n\xc05\xa3\xe0Y\x14|\x9ba'
p171
ssS'atcatalog_model___init__'
p172
(dp173
g42
(dp174
g31
S'atcatalog_model___init__.html'
p175
sg33
S'atcatalog/model/__init__'
p176
sg35
g13
(g14
g15
NtRp177
(dp178
g18
I1
sg19
I0
sg20
I0
sg21
I0
sg22
I0
sg23
I0
sg24
I0
sbssg48
S'\x19g\xdfM\x1a\x019\xaf\x1baIeR\xe5u\xa7'
p179
ssS'atcatalog_data_dbsetup'
p180
(dp181
g164
(dp182
g31
S'atcatalog_data_dbsetup.html'
p183
sg33
S'atcatalog/data/dbsetup'
p184
sg35
g13
(g14
g15
NtRp185
(dp186
g18
I1
sg19
I2
sg20
I52
sg21
I2
sg22
I0
sg23
I18
sg24
I0
sbssg170
S"\xd6f\x83'\xa9\xf3Q{\xbe\x9c{\xfd?\xe7+>"
p187
ssS'atcatalog_data_create_database'
p188
(dp189
g6
(dp190
S'html_filename'
p191
S'atcatalog_data_create_database.html'
p192
sS'name'
p193
S'atcatalog/data/create_database'
p194
sS'nums'
p195
g13
(g14
g15
NtRp196
(dp197
g18
I1
sg19
I0
sg20
I38
sg21
I0
sg22
I0
sg23
I38
sg24
I0
sbssg25
S'<T\xa3M\xdf\x8e\xf8$]\x94$\xf1\x94\x1c\x15\xdb'
p198
ssS'atcatalog_data_fake'
p199
(dp200
g6
(dp201
S'html_filename'
p202
S'atcatalog_data_fake.html'
p203
sS'name'
p204
S'atcatalog/data/fake'
p205
sS'nums'
p206
g13
(g14
g15
NtRp207
(dp208
g18
I1
sg19
I0
sg20
I9
sg21
I0
sg22
I0
sg23
I9
sg24
I0
sbssg25
S'\x9b\x9fGC\xee\xa8}D\xb5."\xea\xca\xaa\x1b\xed'
p209
ssS'atcatalog_views___init__'
p210
(dp211
g6
(dp212
g191
S'atcatalog_views___init__.html'
p213
sg193
S'atcatalog/views/__init__'
p214
sg195
g13
(g14
g15
NtRp215
(dp216
g18
I1
sg19
I0
sg20
I0
sg21
I0
sg22
I0
sg23
I0
sg24
I0
sbssg25
S'?l 2\x1b\xae\xe1\xf1\xe2\x1a\xb6]i\x04\xe6\xb2'
p217
ssS'atcatalog_model_ormhelper'
p218
(dp219
S'index'
p220
(dp221
g86
S'atcatalog_model_ormhelper.html'
p222
sg88
S'atcatalog/model/ormhelper'
p223
sg90
g13
(g14
g15
NtRp224
(dp225
g18
I1
sg19
I6
sg20
I33
sg21
I0
sg22
I0
sg23
I0
sg24
I0
sbssS'hash'
p226
S'\xdb\xa44\xc9\xa7y\xa5\x8a\x80m\x86\xa9\xcebd\xe2'
p227
ssS'atcatalog_tests_testdbsetup'
p228
(dp229
S'index'
p230
(dp231
g31
S'atcatalog_tests_testdbsetup.html'
p232
sg33
S'atcatalog/tests/testdbsetup'
p233
sg35
g13
(g14
g15
NtRp234
(dp235
g18
I1
sg19
I2
sg20
I47
sg21
I2
sg22
I0
sg23
I13
sg24
I2
sbssS'hash'
p236
S'Y\xd4\x89l\xf1p\xac\x89\xe1u\xf0Y\xdaA\x05V'
p237
ssS'atcatalog_data_model'
p238
(dp239
S'index'
p240
(dp241
S'html_filename'
p242
S'atcatalog_data_model.html'
p243
sS'name'
p244
S'atcatalog/data/model'
p245
sS'nums'
p246
g13
(g14
g15
NtRp247
(dp248
g18
I1
sg19
I2
sg20
I32
sg21
I2
sg22
I0
sg23
I32
sg24
I2
sbssS'hash'
p249
S'\x7fM\xe6a\x96\x13\xbb)\xfd\xd3$8\x8b\tM\x81'
p250
ssS'atcatalog_tests_testgendata'
p251
(dp252
S'index'
p253
(dp254
g86
S'atcatalog_tests_testgendata.html'
p255
sg88
S'atcatalog/tests/testgendata'
p256
sg90
g13
(g14
g15
NtRp257
(dp258
g18
I1
sg19
I6
sg20
I27
sg21
I2
sg22
I0
sg23
I0
sg24
I0
sbssS'hash'
p259
S"\xb6\xb9\xeeO\x19L^d\x0f\x7fjEUD'\xd3"
p260
ssS'atcatalog_data_gendata'
p261
(dp262
S'index'
p263
(dp264
g86
S'atcatalog_data_gendata.html'
p265
sg88
S'atcatalog/data/gendata'
p266
sg90
g13
(g14
g15
NtRp267
(dp268
g18
I1
sg19
I2
sg20
I30
sg21
I2
sg22
I0
sg23
I0
sg24
I0
sbssS'hash'
p269
S'\x02\xc4\xf4dJ\x16@\xca\x94\xf5\xa0Ug\xfcP\xac'
p270
ssS'atcatalog_model_atcmodel'
p271
(dp272
g42
(dp273
g86
S'atcatalog_model_atcmodel.html'
p274
sg88
S'atcatalog/model/atcmodel'
p275
sg90
g13
(g14
g15
NtRp276
(dp277
g18
I1
sg19
I2
sg20
I76
sg21
I2
sg22
I0
sg23
I0
sg24
I0
sbssg48
S'\xea>\xe6~\xcaO\xb3\r\xaf\x7f\x9b\x8eH\x9b\x05\xdc'
p278
ssS'atcatalog_tests___init__'
p279
(dp280
g6
(dp281
g191
S'atcatalog_tests___init__.html'
p282
sg193
S'atcatalog/tests/__init__'
p283
sg195
g13
(g14
g15
NtRp284
(dp285
g18
I1
sg19
I0
sg20
I0
sg21
I0
sg22
I0
sg23
I0
sg24
I0
sbssg25
S'?l 2\x1b\xae\xe1\xf1\xe2\x1a\xb6]i\x04\xe6\xb2'
p286
ssS'atcatalog_tests_testatcmodel'
p287
(dp288
S'index'
p289
(dp290
g86
S'atcatalog_tests_testatcmodel.html'
p291
sg88
S'atcatalog/tests/testatcmodel'
p292
sg90
g13
(g14
g15
NtRp293
(dp294
g18
I1
sg19
I0
sg20
I124
sg21
I2
sg22
I0
sg23
I0
sg24
I0
sbssS'hash'
p295
S' \x11\xf7\xc2R\xce\xc7\xe0\xbe_\x962\xf9\xbd?\n'
p296
ssS'atcatalog_data_origmodel'
p297
(dp298
S'index'
p299
(dp300
g112
S'atcatalog_data_origmodel.html'
p301
sg114
S'atcatalog/data/origmodel'
p302
sg116
g13
(g14
g15
NtRp303
(dp304
g18
I1
sg19
I0
sg20
I38
sg21
I0
sg22
I0
sg23
I38
sg24
I0
sbssS'hash'
p305
S'\x06\xe9\xe2b\xa1\xcc\x9c\xb6?\xa9#65\xc5\x19\xd3'
p306
ssS'atcatalog_data_csvinput'
p307
(dp308
S'index'
p309
(dp310
g31
S'atcatalog_data_csvinput.html'
p311
sg33
S'atcatalog/data/csvinput'
p312
sg35
g13
(g14
g15
NtRp313
(dp314
g18
I1
sg19
I2
sg20
I23
sg21
I2
sg22
I0
sg23
I23
sg24
I2
sbssS'hash'
p315
S'`Z\xd7\xa7\xe7\x7f\x8a\xc4\xb5\x17\x7f\xaej\xa1@;'
p316
ssS'atcatalog_tests_testsentence'
p317
(dp318
S'index'
p319
(dp320
g53
S'atcatalog_tests_testsentence.html'
p321
sg55
S'atcatalog/tests/testsentence'
p322
sg57
g13
(g14
g15
NtRp323
(dp324
g18
I1
sg19
I0
sg20
I47
sg21
I2
sg22
I0
sg23
I0
sg24
I0
sbssS'hash'
p325
S'\x82\nddf2X9\x9c=w\r\x9d\x8e9\xf0'
p326
ssS'atcatalog_tests_testlanguage'
p327
(dp328
S'index'
p329
(dp330
S'html_filename'
p331
S'atcatalog_tests_testlanguage.html'
p332
sS'name'
p333
S'atcatalog/tests/testlanguage'
p334
sS'nums'
p335
g13
(g14
g15
NtRp336
(dp337
g18
I1
sg19
I2
sg20
I28
sg21
I2
sg22
I0
sg23
I0
sg24
I0
sbssS'hash'
p338
S'.U\xf9\xb5\xaa&\x84\x9f\xdfY\x15\xef\x17\xf2@_'
p339
ssS'atcatalog_tests_testormhelper'
p340
(dp341
S'index'
p342
(dp343
g86
S'atcatalog_tests_testormhelper.html'
p344
sg88
S'atcatalog/tests/testormhelper'
p345
sg90
g13
(g14
g15
NtRp346
(dp347
g18
I1
sg19
I0
sg20
I67
sg21
I2
sg22
I0
sg23
I0
sg24
I0
sbssS'hash'
p348
S'1A\xa5so\xfcEq\xe3]\xb7+\x1b\x7f\xb7\xc9'
p349
sssS'version'
p350
S'3.7.1'
p351
sS'settings'
p352
S'm^\xd1\rt\xba\x05\xc7,Bm\x10@\xf0\\\x9a'
p353
sS'format'
p354
I1
s.