(dp1
S'files'
p2
(dp3
S'atcatalog_views_language'
p4
(dp5
S'index'
p6
(dp7
S'html_filename'
p8
S'atcatalog_views_language.html'
p9
sS'name'
p10
S'atcatalog/views/language'
p11
sS'nums'
p12
ccopy_reg
_reconstructor
p13
(ccoverage.results
Numbers
p14
c__builtin__
object
p15
NtRp16
(dp17
S'n_files'
p18
I1
sS'n_branches'
p19
I0
sS'n_statements'
p20
I8
sS'n_excluded'
p21
I0
sS'n_partial_branches'
p22
I0
sS'n_missing'
p23
I0
sS'n_missing_branches'
p24
I0
sbssS'hash'
p25
S'"\x1a\xb2Uj*\xdb\'a\xc4\xfb}w\x10QA'
p26
ssS'atcatalog_data_dbcrud'
p27
(dp28
S'index'
p29
(dp30
S'html_filename'
p31
S'atcatalog_data_dbcrud.html'
p32
sS'name'
p33
S'atcatalog/data/dbcrud'
p34
sS'nums'
p35
g13
(g14
g15
NtRp36
(dp37
g18
I1
sg19
I18
sg20
I20
sg21
I5
sg22
I0
sg23
I20
sg24
I18
sbssS'hash'
p38
S'\xf95\x1e\xb7Q_\xd7qy\x97\xf7\xc9P\xb0B;'
p39
ssS'atcatalog_model_atcaccess'
p40
(dp41
S'index'
p42
(dp43
g31
S'atcatalog_model_atcaccess.html'
p44
sg33
S'atcatalog/model/atcaccess'
p45
sg35
g13
(g14
g15
NtRp46
(dp47
g18
I1
sg19
I10
sg20
I33
sg21
I0
sg22
I0
sg23
I33
sg24
I10
sbssS'hash'
p48
S'\xb7\x00w\x8fD\xe0\x8dE\x87\xe42\x9f\t\xe2\xcd\xf9'
p49
ssS'atcatalog_views_sentence'
p50
(dp51
g6
(dp52
S'html_filename'
p53
S'atcatalog_views_sentence.html'
p54
sS'name'
p55
S'atcatalog/views/sentence'
p56
sS'nums'
p57
g13
(g14
g15
NtRp58
(dp59
g18
I1
sg19
I0
sg20
I16
sg21
I0
sg22
I0
sg23
I0
sg24
I0
sbssg25
S'G{"2\x968\xc4\xba\xd1\x97\xdf\xc6\xcb\x94R\xda'
p60
ssS'atcatalog_data_model_database'
p61
(dp62
S'index'
p63
(dp64
S'html_filename'
p65
S'atcatalog_data_model_database.html'
p66
sS'name'
p67
S'atcatalog/data/model_database'
p68
sS'nums'
p69
g13
(g14
g15
NtRp70
(dp71
g18
I1
sg19
I0
sg20
I38
sg21
I0
sg22
I0
sg23
I38
sg24
I0
sbssS'hash'
p72
S'\x06\xe9\xe2b\xa1\xcc\x9c\xb6?\xa9#65\xc5\x19\xd3'
p73
ssS'atcatalog___init__'
p74
(dp75
g6
(dp76
g31
S'atcatalog___init__.html'
p77
sg33
S'atcatalog/__init__'
p78
sg35
g13
(g14
g15
NtRp79
(dp80
g18
I1
sg19
I0
sg20
I6
sg21
I0
sg22
I0
sg23
I0
sg24
I0
sbssg25
S'\xe3\xaaO\xe9\x9e\xfdI\xa6]\x7fJ\xf6o\x1e\xb9\x8a'
p81
ssS'atcatalog_tests_testdbfill'
p82
(dp83
S'index'
p84
(dp85
S'html_filename'
p86
S'atcatalog_tests_testdbfill.html'
p87
sS'name'
p88
S'atcatalog/tests/testdbfill'
p89
sS'nums'
p90
g13
(g14
g15
NtRp91
(dp92
g18
I1
sg19
I0
sg20
I37
sg21
I0
sg22
I0
sg23
I25
sg24
I0
sbssS'hash'
p93
S'\xecPq\xeb\xf7\x16\x8f*\xcd\x95\x9a!h\xe4\xe4\x93'
p94
ssS'atcatalog_data_const'
p95
(dp96
S'index'
p97
(dp98
S'html_filename'
p99
S'atcatalog_data_const.html'
p100
sS'name'
p101
S'atcatalog/data/const'
p102
sS'nums'
p103
g13
(g14
g15
NtRp104
(dp105
g18
I1
sg19
I0
sg20
I20
sg21
I0
sg22
I0
sg23
I0
sg24
I0
sbssS'hash'
p106
S'\x93N\x91\xb6\xd59\xee\x0e\xf4\x7f9\xa2\xf8\xbfx\x06'
p107
ssS'atcatalog_tests_testmodel'
p108
(dp109
S'index'
p110
(dp111
S'html_filename'
p112
S'atcatalog_tests_testmodel.html'
p113
sS'name'
p114
S'atcatalog/tests/testmodel'
p115
sS'nums'
p116
g13
(g14
g15
NtRp117
(dp118
g18
I1
sg19
I0
sg20
I16
sg21
I2
sg22
I0
sg23
I6
sg24
I0
sbssS'hash'
p119
S'R\x9dK \xed\xa8\x1eSg*\x9d\x08\xab\xc4\xf1l'
p120
ssS'atcatalog_tests_testlanguages'
p121
(dp122
g6
(dp123
S'html_filename'
p124
S'atcatalog_tests_testlanguages.html'
p125
sS'name'
p126
S'atcatalog/tests/testlanguages'
p127
sS'nums'
p128
g13
(g14
g15
NtRp129
(dp130
g18
I1
sg19
I2
sg20
I24
sg21
I2
sg22
I0
sg23
I0
sg24
I0
sbssg25
S'\xddM\xfd\xb7\xd1\x1b&B\x08\xf1K\xb9S\xf5qt'
p131
ssS'atcatalog_views_languages'
p132
(dp133
g6
(dp134
S'html_filename'
p135
S'atcatalog_views_languages.html'
p136
sS'name'
p137
S'atcatalog/views/languages'
p138
sS'nums'
p139
g13
(g14
g15
NtRp140
(dp141
g18
I1
sg19
I0
sg20
I7
sg21
I0
sg22
I0
sg23
I0
sg24
I0
sbssg25
S'\xd8;}3\x13\xdf=\x85\xe3\xb23\xb0\xb3\xd4dM'
p142
ssS'atcatalog_data___init__'
p143
(dp144
g6
(dp145
S'html_filename'
p146
S'atcatalog_data___init__.html'
p147
sS'name'
p148
S'atcatalog/data/__init__'
p149
sS'nums'
p150
g13
(g14
g15
NtRp151
(dp152
g18
I1
sg19
I0
sg20
I1
sg21
I0
sg22
I0
sg23
I0
sg24
I0
sbssg25
S'\xb9Z\x86\xde\x18\xa0\xc6\x95,I\xbeE\xefA\x16\xe9'
p153
ssS'atcatalog_data_database'
p154
(dp155
g110
(dp156
S'html_filename'
p157
S'atcatalog_data_database.html'
p158
sS'name'
p159
S'atcatalog/data/database'
p160
sS'nums'
p161
g13
(g14
g15
NtRp162
(dp163
g18
I1
sg19
I0
sg20
I0
sg21
I0
sg22
I0
sg23
I0
sg24
I0
sbssg119
S'\xe5P\x11)^\xf4>1D.\x0e\x0b\xa1\xf8[+'
p164
ssS'atcatalog_data_dbfill'
p165
(dp166
S'index'
p167
(dp168
g86
S'atcatalog_data_dbfill.html'
p169
sg88
S'atcatalog/data/dbfill'
p170
sg90
g13
(g14
g15
NtRp171
(dp172
g18
I1
sg19
I6
sg20
I27
sg21
I2
sg22
I0
sg23
I4
sg24
I0
sbssS'hash'
p173
S'cV\xcc2\x0b\xe1\x19\x86\xf3\x0fc\x0b\xd8\xf7\x89H'
p174
ssS'atcatalog_model___init__'
p175
(dp176
g42
(dp177
g31
S'atcatalog_model___init__.html'
p178
sg33
S'atcatalog/model/__init__'
p179
sg35
g13
(g14
g15
NtRp180
(dp181
g18
I1
sg19
I0
sg20
I0
sg21
I0
sg22
I0
sg23
I0
sg24
I0
sbssg48
S'\x19g\xdfM\x1a\x019\xaf\x1baIeR\xe5u\xa7'
p182
ssS'atcatalog_data_dbsetup'
p183
(dp184
g167
(dp185
g31
S'atcatalog_data_dbsetup.html'
p186
sg33
S'atcatalog/data/dbsetup'
p187
sg35
g13
(g14
g15
NtRp188
(dp189
g18
I1
sg19
I2
sg20
I52
sg21
I2
sg22
I0
sg23
I18
sg24
I0
sbssg173
S"\xd6f\x83'\xa9\xf3Q{\xbe\x9c{\xfd?\xe7+>"
p190
ssS'atcatalog_data_create_database'
p191
(dp192
g6
(dp193
S'html_filename'
p194
S'atcatalog_data_create_database.html'
p195
sS'name'
p196
S'atcatalog/data/create_database'
p197
sS'nums'
p198
g13
(g14
g15
NtRp199
(dp200
g18
I1
sg19
I0
sg20
I38
sg21
I0
sg22
I0
sg23
I38
sg24
I0
sbssg25
S'<T\xa3M\xdf\x8e\xf8$]\x94$\xf1\x94\x1c\x15\xdb'
p201
ssS'atcatalog_data_fake'
p202
(dp203
g6
(dp204
S'html_filename'
p205
S'atcatalog_data_fake.html'
p206
sS'name'
p207
S'atcatalog/data/fake'
p208
sS'nums'
p209
g13
(g14
g15
NtRp210
(dp211
g18
I1
sg19
I0
sg20
I9
sg21
I0
sg22
I0
sg23
I9
sg24
I0
sbssg25
S'\x9b\x9fGC\xee\xa8}D\xb5."\xea\xca\xaa\x1b\xed'
p212
ssS'atcatalog_views___init__'
p213
(dp214
g6
(dp215
g194
S'atcatalog_views___init__.html'
p216
sg196
S'atcatalog/views/__init__'
p217
sg198
g13
(g14
g15
NtRp218
(dp219
g18
I1
sg19
I0
sg20
I0
sg21
I0
sg22
I0
sg23
I0
sg24
I0
sbssg25
S'?l 2\x1b\xae\xe1\xf1\xe2\x1a\xb6]i\x04\xe6\xb2'
p220
ssS'atcatalog_model_ormhelper'
p221
(dp222
S'index'
p223
(dp224
g53
S'atcatalog_model_ormhelper.html'
p225
sg55
S'atcatalog/model/ormhelper'
p226
sg57
g13
(g14
g15
NtRp227
(dp228
g18
I1
sg19
I6
sg20
I33
sg21
I0
sg22
I0
sg23
I0
sg24
I0
sbssS'hash'
p229
S'\xdb\xa44\xc9\xa7y\xa5\x8a\x80m\x86\xa9\xcebd\xe2'
p230
ssS'atcatalog_tests_testdbsetup'
p231
(dp232
S'index'
p233
(dp234
g31
S'atcatalog_tests_testdbsetup.html'
p235
sg33
S'atcatalog/tests/testdbsetup'
p236
sg35
g13
(g14
g15
NtRp237
(dp238
g18
I1
sg19
I2
sg20
I47
sg21
I2
sg22
I0
sg23
I13
sg24
I2
sbssS'hash'
p239
S'Y\xd4\x89l\xf1p\xac\x89\xe1u\xf0Y\xdaA\x05V'
p240
ssS'atcatalog_data_model'
p241
(dp242
S'index'
p243
(dp244
S'html_filename'
p245
S'atcatalog_data_model.html'
p246
sS'name'
p247
S'atcatalog/data/model'
p248
sS'nums'
p249
g13
(g14
g15
NtRp250
(dp251
g18
I1
sg19
I2
sg20
I32
sg21
I2
sg22
I0
sg23
I32
sg24
I2
sbssS'hash'
p252
S'\x7fM\xe6a\x96\x13\xbb)\xfd\xd3$8\x8b\tM\x81'
p253
ssS'atcatalog_tests_testgendata'
p254
(dp255
S'index'
p256
(dp257
g53
S'atcatalog_tests_testgendata.html'
p258
sg55
S'atcatalog/tests/testgendata'
p259
sg57
g13
(g14
g15
NtRp260
(dp261
g18
I1
sg19
I6
sg20
I27
sg21
I2
sg22
I0
sg23
I0
sg24
I0
sbssS'hash'
p262
S"\xb6\xb9\xeeO\x19L^d\x0f\x7fjEUD'\xd3"
p263
ssS'atcatalog_data_gendata'
p264
(dp265
S'index'
p266
(dp267
g53
S'atcatalog_data_gendata.html'
p268
sg55
S'atcatalog/data/gendata'
p269
sg57
g13
(g14
g15
NtRp270
(dp271
g18
I1
sg19
I2
sg20
I30
sg21
I2
sg22
I0
sg23
I0
sg24
I0
sbssS'hash'
p272
S'\x02\xc4\xf4dJ\x16@\xca\x94\xf5\xa0Ug\xfcP\xac'
p273
ssS'atcatalog_model_atcmodel'
p274
(dp275
g42
(dp276
g53
S'atcatalog_model_atcmodel.html'
p277
sg55
S'atcatalog/model/atcmodel'
p278
sg57
g13
(g14
g15
NtRp279
(dp280
g18
I1
sg19
I2
sg20
I76
sg21
I2
sg22
I0
sg23
I0
sg24
I0
sbssg48
S'\xea>\xe6~\xcaO\xb3\r\xaf\x7f\x9b\x8eH\x9b\x05\xdc'
p281
ssS'atcatalog_tests___init__'
p282
(dp283
g6
(dp284
g194
S'atcatalog_tests___init__.html'
p285
sg196
S'atcatalog/tests/__init__'
p286
sg198
g13
(g14
g15
NtRp287
(dp288
g18
I1
sg19
I0
sg20
I0
sg21
I0
sg22
I0
sg23
I0
sg24
I0
sbssg25
S'?l 2\x1b\xae\xe1\xf1\xe2\x1a\xb6]i\x04\xe6\xb2'
p289
ssS'atcatalog_tests_testatcmodel'
p290
(dp291
S'index'
p292
(dp293
g53
S'atcatalog_tests_testatcmodel.html'
p294
sg55
S'atcatalog/tests/testatcmodel'
p295
sg57
g13
(g14
g15
NtRp296
(dp297
g18
I1
sg19
I0
sg20
I124
sg21
I2
sg22
I0
sg23
I0
sg24
I0
sbssS'hash'
p298
S' \x11\xf7\xc2R\xce\xc7\xe0\xbe_\x962\xf9\xbd?\n'
p299
ssS'atcatalog_data_origmodel'
p300
(dp301
S'index'
p302
(dp303
g112
S'atcatalog_data_origmodel.html'
p304
sg114
S'atcatalog/data/origmodel'
p305
sg116
g13
(g14
g15
NtRp306
(dp307
g18
I1
sg19
I0
sg20
I38
sg21
I0
sg22
I0
sg23
I38
sg24
I0
sbssS'hash'
p308
S'\x06\xe9\xe2b\xa1\xcc\x9c\xb6?\xa9#65\xc5\x19\xd3'
p309
ssS'atcatalog_data_csvinput'
p310
(dp311
S'index'
p312
(dp313
g31
S'atcatalog_data_csvinput.html'
p314
sg33
S'atcatalog/data/csvinput'
p315
sg35
g13
(g14
g15
NtRp316
(dp317
g18
I1
sg19
I2
sg20
I23
sg21
I2
sg22
I0
sg23
I23
sg24
I2
sbssS'hash'
p318
S'`Z\xd7\xa7\xe7\x7f\x8a\xc4\xb5\x17\x7f\xaej\xa1@;'
p319
ssS'atcatalog_tests_testsentence'
p320
(dp321
S'index'
p322
(dp323
g53
S'atcatalog_tests_testsentence.html'
p324
sg55
S'atcatalog/tests/testsentence'
p325
sg57
g13
(g14
g15
NtRp326
(dp327
g18
I1
sg19
I0
sg20
I47
sg21
I2
sg22
I0
sg23
I0
sg24
I0
sbssS'hash'
p328
S'\x82\nddf2X9\x9c=w\r\x9d\x8e9\xf0'
p329
ssS'atcatalog_tests_testlanguage'
p330
(dp331
S'index'
p332
(dp333
g86
S'atcatalog_tests_testlanguage.html'
p334
sg88
S'atcatalog/tests/testlanguage'
p335
sg90
g13
(g14
g15
NtRp336
(dp337
g18
I1
sg19
I2
sg20
I30
sg21
I2
sg22
I0
sg23
I0
sg24
I0
sbssS'hash'
p338
S'h \xfc\xa8\xf0\xd7/\xdb\xf9\xe0\x0bt\xc5\xf7\xddL'
p339
ssS'atcatalog_tests_testormhelper'
p340
(dp341
S'index'
p342
(dp343
g53
S'atcatalog_tests_testormhelper.html'
p344
sg55
S'atcatalog/tests/testormhelper'
p345
sg57
g13
(g14
g15
NtRp346
(dp347
g18
I1
sg19
I0
sg20
I67
sg21
I2
sg22
I0
sg23
I0
sg24
I0
sbssS'hash'
p348
S'1A\xa5so\xfcEq\xe3]\xb7+\x1b\x7f\xb7\xc9'
p349
sssS'version'
p350
S'3.7.1'
p351
sS'settings'
p352
S'm^\xd1\rt\xba\x05\xc7,Bm\x10@\xf0\\\x9a'
p353
sS'format'
p354
I1
s.