(dp1
S'files'
p2
(dp3
S'atcatalog_views___init__'
p4
(dp5
S'index'
p6
(dp7
S'html_filename'
p8
S'atcatalog_views___init__.html'
p9
sS'name'
p10
S'atcatalog/views/__init__'
p11
sS'nums'
p12
ccopy_reg
_reconstructor
p13
(ccoverage.results
Numbers
p14
c__builtin__
object
p15
NtRp16
(dp17
S'n_files'
p18
I1
sS'n_branches'
p19
I0
sS'n_statements'
p20
I0
sS'n_excluded'
p21
I0
sS'n_partial_branches'
p22
I0
sS'n_missing'
p23
I0
sS'n_missing_branches'
p24
I0
sbssS'hash'
p25
S'?l 2\x1b\xae\xe1\xf1\xe2\x1a\xb6]i\x04\xe6\xb2'
p26
ssS'atcatalog_views_language'
p27
(dp28
g6
(dp29
S'html_filename'
p30
S'atcatalog_views_language.html'
p31
sS'name'
p32
S'atcatalog/views/language'
p33
sS'nums'
p34
g13
(g14
g15
NtRp35
(dp36
g18
I1
sg19
I0
sg20
I6
sg21
I0
sg22
I0
sg23
I0
sg24
I0
sbssg25
S'\xb6\xad\x81^\x19\xadh\x9fzY\x8e\xa60\x82\x8b\xfb'
p37
ssS'atcatalog_views_languages'
p38
(dp39
g6
(dp40
S'html_filename'
p41
S'atcatalog_views_languages.html'
p42
sS'name'
p43
S'atcatalog/views/languages'
p44
sS'nums'
p45
g13
(g14
g15
NtRp46
(dp47
g18
I1
sg19
I0
sg20
I6
sg21
I0
sg22
I0
sg23
I0
sg24
I0
sbssg25
S'#\xaf\xed\xbc\xa2p\x04\xc9\xff\x0c}\xf7\xae\xa5\x96o'
p48
ssS'atcatalog_data___init__'
p49
(dp50
g6
(dp51
S'html_filename'
p52
S'atcatalog_data___init__.html'
p53
sS'name'
p54
S'atcatalog/data/__init__'
p55
sS'nums'
p56
g13
(g14
g15
NtRp57
(dp58
g18
I1
sg19
I0
sg20
I1
sg21
I0
sg22
I0
sg23
I0
sg24
I0
sbssg25
S'\xb9Z\x86\xde\x18\xa0\xc6\x95,I\xbeE\xefA\x16\xe9'
p59
ssS'atcatalog_views_sentence'
p60
(dp61
g6
(dp62
S'html_filename'
p63
S'atcatalog_views_sentence.html'
p64
sS'name'
p65
S'atcatalog/views/sentence'
p66
sS'nums'
p67
g13
(g14
g15
NtRp68
(dp69
g18
I1
sg19
I0
sg20
I12
sg21
I0
sg22
I0
sg23
I0
sg24
I0
sbssg25
S'<\x1dH\xe1\xefq\xec_\xb0%\xc9?SY\x06U'
p70
ssS'atcatalog_data_model_database'
p71
(dp72
S'index'
p73
(dp74
S'html_filename'
p75
S'atcatalog_data_model_database.html'
p76
sS'name'
p77
S'atcatalog/data/model_database'
p78
sS'nums'
p79
g13
(g14
g15
NtRp80
(dp81
g18
I1
sg19
I0
sg20
I38
sg21
I0
sg22
I0
sg23
I38
sg24
I0
sbssS'hash'
p82
S'\x06\xe9\xe2b\xa1\xcc\x9c\xb6?\xa9#65\xc5\x19\xd3'
p83
ssS'atcatalog___init__'
p84
(dp85
g6
(dp86
g8
S'atcatalog___init__.html'
p87
sg10
S'atcatalog/__init__'
p88
sg12
g13
(g14
g15
NtRp89
(dp90
g18
I1
sg19
I0
sg20
I6
sg21
I0
sg22
I0
sg23
I0
sg24
I0
sbssg25
S'\xe3\xaaO\xe9\x9e\xfdI\xa6]\x7fJ\xf6o\x1e\xb9\x8a'
p91
ssS'atcatalog_tests_testdbsetup'
p92
(dp93
S'index'
p94
(dp95
S'html_filename'
p96
S'atcatalog_tests_testdbsetup.html'
p97
sS'name'
p98
S'atcatalog/tests/testdbsetup'
p99
sS'nums'
p100
g13
(g14
g15
NtRp101
(dp102
g18
I1
sg19
I8
sg20
I108
sg21
I2
sg22
I0
sg23
I0
sg24
I0
sbssS'hash'
p103
S'N\xeaj\xdad\xb5\xd0\xf9\x02\x8a\x9fW\xb4\xa8\x08Z'
p104
ssS'atcatalog_data_dbfill'
p105
(dp106
S'index'
p107
(dp108
S'html_filename'
p109
S'atcatalog_data_dbfill.html'
p110
sS'name'
p111
S'atcatalog/data/dbfill'
p112
sS'nums'
p113
g13
(g14
g15
NtRp114
(dp115
g18
I1
sg19
I0
sg20
I1
sg21
I0
sg22
I0
sg23
I1
sg24
I0
sbssS'hash'
p116
S'\xb7m\xd1\xa4\x9b\xba\xfb\xb2Hciq\xe6\x9d\xa1\x0c'
p117
ssS'atcatalog_data_model'
p118
(dp119
S'index'
p120
(dp121
S'html_filename'
p122
S'atcatalog_data_model.html'
p123
sS'name'
p124
S'atcatalog/data/model'
p125
sS'nums'
p126
g13
(g14
g15
NtRp127
(dp128
g18
I1
sg19
I2
sg20
I32
sg21
I2
sg22
I0
sg23
I32
sg24
I2
sbssS'hash'
p129
S'\x7fM\xe6a\x96\x13\xbb)\xfd\xd3$8\x8b\tM\x81'
p130
ssS'atcatalog_data_dbsetup'
p131
(dp132
g107
(dp133
S'html_filename'
p134
S'atcatalog_data_dbsetup.html'
p135
sS'name'
p136
S'atcatalog/data/dbsetup'
p137
sS'nums'
p138
g13
(g14
g15
NtRp139
(dp140
g18
I1
sg19
I4
sg20
I44
sg21
I2
sg22
I0
sg23
I4
sg24
I0
sbssg116
S'\xbf\xe9\xf7r\x02\x0c\x08\x067\x0b!\x92I\xda\n^'
p141
ssS'atcatalog_data_origmodel'
p142
(dp143
S'index'
p144
(dp145
S'html_filename'
p146
S'atcatalog_data_origmodel.html'
p147
sS'name'
p148
S'atcatalog/data/origmodel'
p149
sS'nums'
p150
g13
(g14
g15
NtRp151
(dp152
g18
I1
sg19
I0
sg20
I38
sg21
I0
sg22
I0
sg23
I38
sg24
I0
sbssS'hash'
p153
S'\x06\xe9\xe2b\xa1\xcc\x9c\xb6?\xa9#65\xc5\x19\xd3'
p154
ssS'atcatalog_tests_testsentence'
p155
(dp156
S'index'
p157
(dp158
S'html_filename'
p159
S'atcatalog_tests_testsentence.html'
p160
sS'name'
p161
S'atcatalog/tests/testsentence'
p162
sS'nums'
p163
g13
(g14
g15
NtRp164
(dp165
g18
I1
sg19
I0
sg20
I42
sg21
I2
sg22
I0
sg23
I0
sg24
I0
sbssS'hash'
p166
S'c=B\x93\xdf\xde\xbe\x89!\xff\x9eK\xf2klT'
p167
ssS'atcatalog_tests___init__'
p168
(dp169
g6
(dp170
g8
S'atcatalog_tests___init__.html'
p171
sg10
S'atcatalog/tests/__init__'
p172
sg12
g13
(g14
g15
NtRp173
(dp174
g18
I1
sg19
I0
sg20
I0
sg21
I0
sg22
I0
sg23
I0
sg24
I0
sbssg25
S'?l 2\x1b\xae\xe1\xf1\xe2\x1a\xb6]i\x04\xe6\xb2'
p175
ssS'atcatalog_data_fake'
p176
(dp177
g6
(dp178
S'html_filename'
p179
S'atcatalog_data_fake.html'
p180
sS'name'
p181
S'atcatalog/data/fake'
p182
sS'nums'
p183
g13
(g14
g15
NtRp184
(dp185
g18
I1
sg19
I0
sg20
I9
sg21
I0
sg22
I0
sg23
I0
sg24
I0
sbssg25
S"\xda'S\xfd\xfe\x86\x89N\xa1\xac\n\xd7T\xe8h\xb1"
p186
ssS'atcatalog_tests_testmodel'
p187
(dp188
S'index'
p189
(dp190
g146
S'atcatalog_tests_testmodel.html'
p191
sg148
S'atcatalog/tests/testmodel'
p192
sg150
g13
(g14
g15
NtRp193
(dp194
g18
I1
sg19
I0
sg20
I16
sg21
I2
sg22
I0
sg23
I6
sg24
I0
sbssS'hash'
p195
S'R\x9dK \xed\xa8\x1eSg*\x9d\x08\xab\xc4\xf1l'
p196
ssS'atcatalog_data_database'
p197
(dp198
g189
(dp199
S'html_filename'
p200
S'atcatalog_data_database.html'
p201
sS'name'
p202
S'atcatalog/data/database'
p203
sS'nums'
p204
g13
(g14
g15
NtRp205
(dp206
g18
I1
sg19
I0
sg20
I0
sg21
I0
sg22
I0
sg23
I0
sg24
I0
sbssg195
S'\xe5P\x11)^\xf4>1D.\x0e\x0b\xa1\xf8[+'
p207
ssS'atcatalog_tests_testlanguages'
p208
(dp209
g6
(dp210
S'html_filename'
p211
S'atcatalog_tests_testlanguages.html'
p212
sS'name'
p213
S'atcatalog/tests/testlanguages'
p214
sS'nums'
p215
g13
(g14
g15
NtRp216
(dp217
g18
I1
sg19
I2
sg20
I24
sg21
I2
sg22
I0
sg23
I0
sg24
I0
sbssg25
S"j6\xd2')\x8c\xf3\xe7\x85H\x06\xae^\x8e<a"
p218
ssS'atcatalog_data_create_database'
p219
(dp220
g6
(dp221
g8
S'atcatalog_data_create_database.html'
p222
sg10
S'atcatalog/data/create_database'
p223
sg12
g13
(g14
g15
NtRp224
(dp225
g18
I1
sg19
I0
sg20
I38
sg21
I0
sg22
I0
sg23
I38
sg24
I0
sbssg25
S'<T\xa3M\xdf\x8e\xf8$]\x94$\xf1\x94\x1c\x15\xdb'
p226
ssS'atcatalog_tests_testlanguage'
p227
(dp228
S'index'
p229
(dp230
g211
S'atcatalog_tests_testlanguage.html'
p231
sg213
S'atcatalog/tests/testlanguage'
p232
sg215
g13
(g14
g15
NtRp233
(dp234
g18
I1
sg19
I2
sg20
I25
sg21
I2
sg22
I0
sg23
I0
sg24
I0
sbssS'hash'
p235
S')\x83\xc4\xd0\x93+\xbfF\x974e\xb6%\x8a\xe1\xca'
p236
sssS'version'
p237
S'3.7.1'
p238
sS'settings'
p239
S'm^\xd1\rt\xba\x05\xc7,Bm\x10@\xf0\\\x9a'
p240
sS'format'
p241
I1
s.