(dp1
S'files'
p2
(dp3
S'atcatalog_views_language'
p4
(dp5
S'index'
p6
(dp7
S'html_filename'
p8
S'atcatalog_views_language.html'
p9
sS'name'
p10
S'atcatalog/views/language'
p11
sS'nums'
p12
ccopy_reg
_reconstructor
p13
(ccoverage.results
Numbers
p14
c__builtin__
object
p15
NtRp16
(dp17
S'n_files'
p18
I1
sS'n_branches'
p19
I0
sS'n_statements'
p20
I6
sS'n_excluded'
p21
I0
sS'n_partial_branches'
p22
I0
sS'n_missing'
p23
I0
sS'n_missing_branches'
p24
I0
sbssS'hash'
p25
S'\xb6\xad\x81^\x19\xadh\x9fzY\x8e\xa60\x82\x8b\xfb'
p26
ssS'atcatalog_data_dbcrud'
p27
(dp28
S'index'
p29
(dp30
S'html_filename'
p31
S'atcatalog_data_dbcrud.html'
p32
sS'name'
p33
S'atcatalog/data/dbcrud'
p34
sS'nums'
p35
g13
(g14
g15
NtRp36
(dp37
g18
I1
sg19
I18
sg20
I20
sg21
I5
sg22
I0
sg23
I20
sg24
I18
sbssS'hash'
p38
S'\xf95\x1e\xb7Q_\xd7qy\x97\xf7\xc9P\xb0B;'
p39
ssS'atcatalog_model_atcaccess'
p40
(dp41
S'index'
p42
(dp43
g31
S'atcatalog_model_atcaccess.html'
p44
sg33
S'atcatalog/model/atcaccess'
p45
sg35
g13
(g14
g15
NtRp46
(dp47
g18
I1
sg19
I10
sg20
I33
sg21
I0
sg22
I0
sg23
I33
sg24
I10
sbssS'hash'
p48
S'\xb7\x00w\x8fD\xe0\x8dE\x87\xe42\x9f\t\xe2\xcd\xf9'
p49
ssS'atcatalog_views_sentence'
p50
(dp51
g6
(dp52
S'html_filename'
p53
S'atcatalog_views_sentence.html'
p54
sS'name'
p55
S'atcatalog/views/sentence'
p56
sS'nums'
p57
g13
(g14
g15
NtRp58
(dp59
g18
I1
sg19
I0
sg20
I12
sg21
I0
sg22
I0
sg23
I0
sg24
I0
sbssg25
S'<\x1dH\xe1\xefq\xec_\xb0%\xc9?SY\x06U'
p60
ssS'atcatalog_data_model_database'
p61
(dp62
S'index'
p63
(dp64
S'html_filename'
p65
S'atcatalog_data_model_database.html'
p66
sS'name'
p67
S'atcatalog/data/model_database'
p68
sS'nums'
p69
g13
(g14
g15
NtRp70
(dp71
g18
I1
sg19
I0
sg20
I38
sg21
I0
sg22
I0
sg23
I38
sg24
I0
sbssS'hash'
p72
S'\x06\xe9\xe2b\xa1\xcc\x9c\xb6?\xa9#65\xc5\x19\xd3'
p73
ssS'atcatalog_data_const'
p74
(dp75
S'index'
p76
(dp77
S'html_filename'
p78
S'atcatalog_data_const.html'
p79
sS'name'
p80
S'atcatalog/data/const'
p81
sS'nums'
p82
g13
(g14
g15
NtRp83
(dp84
g18
I1
sg19
I0
sg20
I20
sg21
I0
sg22
I0
sg23
I0
sg24
I0
sbssS'hash'
p85
S'd\x00\xbaJ\xc0fC\\v\x12\xa1\x94\x11BT\x8e'
p86
ssS'atcatalog_tests_testmodel'
p87
(dp88
S'index'
p89
(dp90
S'html_filename'
p91
S'atcatalog_tests_testmodel.html'
p92
sS'name'
p93
S'atcatalog/tests/testmodel'
p94
sS'nums'
p95
g13
(g14
g15
NtRp96
(dp97
g18
I1
sg19
I0
sg20
I16
sg21
I2
sg22
I0
sg23
I6
sg24
I0
sbssS'hash'
p98
S'R\x9dK \xed\xa8\x1eSg*\x9d\x08\xab\xc4\xf1l'
p99
ssS'atcatalog_tests_testlanguages'
p100
(dp101
g6
(dp102
g8
S'atcatalog_tests_testlanguages.html'
p103
sg10
S'atcatalog/tests/testlanguages'
p104
sg12
g13
(g14
g15
NtRp105
(dp106
g18
I1
sg19
I2
sg20
I24
sg21
I2
sg22
I0
sg23
I0
sg24
I0
sbssg25
S"j6\xd2')\x8c\xf3\xe7\x85H\x06\xae^\x8e<a"
p107
ssS'atcatalog_tests_testlanguage'
p108
(dp109
S'index'
p110
(dp111
g8
S'atcatalog_tests_testlanguage.html'
p112
sg10
S'atcatalog/tests/testlanguage'
p113
sg12
g13
(g14
g15
NtRp114
(dp115
g18
I1
sg19
I2
sg20
I25
sg21
I2
sg22
I0
sg23
I0
sg24
I0
sbssS'hash'
p116
S')\x83\xc4\xd0\x93+\xbfF\x974e\xb6%\x8a\xe1\xca'
p117
ssS'atcatalog_views_languages'
p118
(dp119
g6
(dp120
g8
S'atcatalog_views_languages.html'
p121
sg10
S'atcatalog/views/languages'
p122
sg12
g13
(g14
g15
NtRp123
(dp124
g18
I1
sg19
I0
sg20
I6
sg21
I0
sg22
I0
sg23
I0
sg24
I0
sbssg25
S'#\xaf\xed\xbc\xa2p\x04\xc9\xff\x0c}\xf7\xae\xa5\x96o'
p125
ssS'atcatalog_data___init__'
p126
(dp127
g6
(dp128
S'html_filename'
p129
S'atcatalog_data___init__.html'
p130
sS'name'
p131
S'atcatalog/data/__init__'
p132
sS'nums'
p133
g13
(g14
g15
NtRp134
(dp135
g18
I1
sg19
I0
sg20
I1
sg21
I0
sg22
I0
sg23
I0
sg24
I0
sbssg25
S'\xb9Z\x86\xde\x18\xa0\xc6\x95,I\xbeE\xefA\x16\xe9'
p136
ssS'atcatalog_data_database'
p137
(dp138
g89
(dp139
S'html_filename'
p140
S'atcatalog_data_database.html'
p141
sS'name'
p142
S'atcatalog/data/database'
p143
sS'nums'
p144
g13
(g14
g15
NtRp145
(dp146
g18
I1
sg19
I0
sg20
I0
sg21
I0
sg22
I0
sg23
I0
sg24
I0
sbssg98
S'\xe5P\x11)^\xf4>1D.\x0e\x0b\xa1\xf8[+'
p147
ssS'atcatalog_data_dbfill'
p148
(dp149
S'index'
p150
(dp151
g8
S'atcatalog_data_dbfill.html'
p152
sg10
S'atcatalog/data/dbfill'
p153
sg12
g13
(g14
g15
NtRp154
(dp155
g18
I1
sg19
I6
sg20
I23
sg21
I2
sg22
I0
sg23
I13
sg24
I6
sbssS'hash'
p156
S'Fb>\xdf\x012\xe8\x1d\xc5\x1c\xf0\xcf\xc0U\xfd\x1c'
p157
ssS'atcatalog_data_dbsetup'
p158
(dp159
g150
(dp160
g31
S'atcatalog_data_dbsetup.html'
p161
sg33
S'atcatalog/data/dbsetup'
p162
sg35
g13
(g14
g15
NtRp163
(dp164
g18
I1
sg19
I2
sg20
I52
sg21
I2
sg22
I0
sg23
I18
sg24
I0
sbssg156
S"\xd6f\x83'\xa9\xf3Q{\xbe\x9c{\xfd?\xe7+>"
p165
ssS'atcatalog_data_create_database'
p166
(dp167
g6
(dp168
S'html_filename'
p169
S'atcatalog_data_create_database.html'
p170
sS'name'
p171
S'atcatalog/data/create_database'
p172
sS'nums'
p173
g13
(g14
g15
NtRp174
(dp175
g18
I1
sg19
I0
sg20
I38
sg21
I0
sg22
I0
sg23
I38
sg24
I0
sbssg25
S'<T\xa3M\xdf\x8e\xf8$]\x94$\xf1\x94\x1c\x15\xdb'
p176
ssS'atcatalog_data_fake'
p177
(dp178
g6
(dp179
S'html_filename'
p180
S'atcatalog_data_fake.html'
p181
sS'name'
p182
S'atcatalog/data/fake'
p183
sS'nums'
p184
g13
(g14
g15
NtRp185
(dp186
g18
I1
sg19
I0
sg20
I9
sg21
I0
sg22
I0
sg23
I0
sg24
I0
sbssg25
S"\xda'S\xfd\xfe\x86\x89N\xa1\xac\n\xd7T\xe8h\xb1"
p187
ssS'atcatalog_model_atcmodel'
p188
(dp189
g42
(dp190
S'html_filename'
p191
S'atcatalog_model_atcmodel.html'
p192
sS'name'
p193
S'atcatalog/model/atcmodel'
p194
sS'nums'
p195
g13
(g14
g15
NtRp196
(dp197
g18
I1
sg19
I10
sg20
I101
sg21
I2
sg22
I2
sg23
I16
sg24
I2
sbssg48
S'\x84\x9a\xb2\xaa2\xd1\xa4\r\xb5\x07)\xfck.%\x0c'
p198
ssS'atcatalog_tests_testdbsetup'
p199
(dp200
S'index'
p201
(dp202
g31
S'atcatalog_tests_testdbsetup.html'
p203
sg33
S'atcatalog/tests/testdbsetup'
p204
sg35
g13
(g14
g15
NtRp205
(dp206
g18
I1
sg19
I2
sg20
I47
sg21
I2
sg22
I0
sg23
I13
sg24
I2
sbssS'hash'
p207
S'Y\xd4\x89l\xf1p\xac\x89\xe1u\xf0Y\xdaA\x05V'
p208
ssS'atcatalog_data_model'
p209
(dp210
S'index'
p211
(dp212
S'html_filename'
p213
S'atcatalog_data_model.html'
p214
sS'name'
p215
S'atcatalog/data/model'
p216
sS'nums'
p217
g13
(g14
g15
NtRp218
(dp219
g18
I1
sg19
I2
sg20
I32
sg21
I2
sg22
I0
sg23
I32
sg24
I2
sbssS'hash'
p220
S'\x7fM\xe6a\x96\x13\xbb)\xfd\xd3$8\x8b\tM\x81'
p221
ssS'atcatalog_tests___init__'
p222
(dp223
g6
(dp224
g169
S'atcatalog_tests___init__.html'
p225
sg171
S'atcatalog/tests/__init__'
p226
sg173
g13
(g14
g15
NtRp227
(dp228
g18
I1
sg19
I0
sg20
I0
sg21
I0
sg22
I0
sg23
I0
sg24
I0
sbssg25
S'?l 2\x1b\xae\xe1\xf1\xe2\x1a\xb6]i\x04\xe6\xb2'
p229
ssS'atcatalog_tests_testgendata'
p230
(dp231
S'index'
p232
(dp233
g8
S'atcatalog_tests_testgendata.html'
p234
sg10
S'atcatalog/tests/testgendata'
p235
sg12
g13
(g14
g15
NtRp236
(dp237
g18
I1
sg19
I6
sg20
I27
sg21
I2
sg22
I0
sg23
I0
sg24
I0
sbssS'hash'
p238
S"\xb6\xb9\xeeO\x19L^d\x0f\x7fjEUD'\xd3"
p239
ssS'atcatalog_data_gendata'
p240
(dp241
S'index'
p242
(dp243
g8
S'atcatalog_data_gendata.html'
p244
sg10
S'atcatalog/data/gendata'
p245
sg12
g13
(g14
g15
NtRp246
(dp247
g18
I1
sg19
I2
sg20
I30
sg21
I2
sg22
I0
sg23
I0
sg24
I0
sbssS'hash'
p248
S'\xd5mm\x8bG\x06e\x17\xd5da\xa1\x94\xba\xa8J'
p249
ssS'atcatalog_views___init__'
p250
(dp251
g6
(dp252
g169
S'atcatalog_views___init__.html'
p253
sg171
S'atcatalog/views/__init__'
p254
sg173
g13
(g14
g15
NtRp255
(dp256
g18
I1
sg19
I0
sg20
I0
sg21
I0
sg22
I0
sg23
I0
sg24
I0
sbssg25
S'?l 2\x1b\xae\xe1\xf1\xe2\x1a\xb6]i\x04\xe6\xb2'
p257
ssS'atcatalog___init__'
p258
(dp259
g6
(dp260
g31
S'atcatalog___init__.html'
p261
sg33
S'atcatalog/__init__'
p262
sg35
g13
(g14
g15
NtRp263
(dp264
g18
I1
sg19
I0
sg20
I6
sg21
I0
sg22
I0
sg23
I0
sg24
I0
sbssg25
S'\xe3\xaaO\xe9\x9e\xfdI\xa6]\x7fJ\xf6o\x1e\xb9\x8a'
p265
ssS'atcatalog_tests_testatcmodel'
p266
(dp267
S'index'
p268
(dp269
S'html_filename'
p270
S'atcatalog_tests_testatcmodel.html'
p271
sS'name'
p272
S'atcatalog/tests/testatcmodel'
p273
sS'nums'
p274
g13
(g14
g15
NtRp275
(dp276
g18
I1
sg19
I0
sg20
I83
sg21
I2
sg22
I0
sg23
I0
sg24
I0
sbssS'hash'
p277
S'\xcd\x06X\xcb9o\xf5\xc9>;Jp\xe4\x13>\xad'
p278
ssS'atcatalog_data_origmodel'
p279
(dp280
S'index'
p281
(dp282
g91
S'atcatalog_data_origmodel.html'
p283
sg93
S'atcatalog/data/origmodel'
p284
sg95
g13
(g14
g15
NtRp285
(dp286
g18
I1
sg19
I0
sg20
I38
sg21
I0
sg22
I0
sg23
I38
sg24
I0
sbssS'hash'
p287
S'\x06\xe9\xe2b\xa1\xcc\x9c\xb6?\xa9#65\xc5\x19\xd3'
p288
ssS'atcatalog_data_csvinput'
p289
(dp290
S'index'
p291
(dp292
g31
S'atcatalog_data_csvinput.html'
p293
sg33
S'atcatalog/data/csvinput'
p294
sg35
g13
(g14
g15
NtRp295
(dp296
g18
I1
sg19
I2
sg20
I23
sg21
I2
sg22
I0
sg23
I23
sg24
I2
sbssS'hash'
p297
S'`Z\xd7\xa7\xe7\x7f\x8a\xc4\xb5\x17\x7f\xaej\xa1@;'
p298
ssS'atcatalog_tests_testsentence'
p299
(dp300
S'index'
p301
(dp302
g53
S'atcatalog_tests_testsentence.html'
p303
sg55
S'atcatalog/tests/testsentence'
p304
sg57
g13
(g14
g15
NtRp305
(dp306
g18
I1
sg19
I0
sg20
I42
sg21
I2
sg22
I0
sg23
I0
sg24
I0
sbssS'hash'
p307
S'c=B\x93\xdf\xde\xbe\x89!\xff\x9eK\xf2klT'
p308
ssS'atcatalog_model___init__'
p309
(dp310
g42
(dp311
g31
S'atcatalog_model___init__.html'
p312
sg33
S'atcatalog/model/__init__'
p313
sg35
g13
(g14
g15
NtRp314
(dp315
g18
I1
sg19
I0
sg20
I0
sg21
I0
sg22
I0
sg23
I0
sg24
I0
sbssg48
S'\x19g\xdfM\x1a\x019\xaf\x1baIeR\xe5u\xa7'
p316
sssS'version'
p317
S'3.7.1'
p318
sS'settings'
p319
S'm^\xd1\rt\xba\x05\xc7,Bm\x10@\xf0\\\x9a'
p320
sS'format'
p321
I1
s.