(dp1
S'files'
p2
(dp3
S'atcatalog_views___init__'
p4
(dp5
S'index'
p6
(dp7
S'html_filename'
p8
S'atcatalog_views___init__.html'
p9
sS'name'
p10
S'atcatalog/views/__init__'
p11
sS'nums'
p12
ccopy_reg
_reconstructor
p13
(ccoverage.results
Numbers
p14
c__builtin__
object
p15
NtRp16
(dp17
S'n_files'
p18
I1
sS'n_branches'
p19
I0
sS'n_statements'
p20
I0
sS'n_excluded'
p21
I0
sS'n_partial_branches'
p22
I0
sS'n_missing'
p23
I0
sS'n_missing_branches'
p24
I0
sbssS'hash'
p25
S'?l 2\x1b\xae\xe1\xf1\xe2\x1a\xb6]i\x04\xe6\xb2'
p26
ssS'atcatalog_views_language'
p27
(dp28
g6
(dp29
S'html_filename'
p30
S'atcatalog_views_language.html'
p31
sS'name'
p32
S'atcatalog/views/language'
p33
sS'nums'
p34
g13
(g14
g15
NtRp35
(dp36
g18
I1
sg19
I0
sg20
I6
sg21
I0
sg22
I0
sg23
I0
sg24
I0
sbssg25
S'\xb6\xad\x81^\x19\xadh\x9fzY\x8e\xa60\x82\x8b\xfb'
p37
ssS'atcatalog_views_languages'
p38
(dp39
g6
(dp40
S'html_filename'
p41
S'atcatalog_views_languages.html'
p42
sS'name'
p43
S'atcatalog/views/languages'
p44
sS'nums'
p45
g13
(g14
g15
NtRp46
(dp47
g18
I1
sg19
I0
sg20
I6
sg21
I0
sg22
I0
sg23
I0
sg24
I0
sbssg25
S'#\xaf\xed\xbc\xa2p\x04\xc9\xff\x0c}\xf7\xae\xa5\x96o'
p48
ssS'atcatalog_data___init__'
p49
(dp50
g6
(dp51
S'html_filename'
p52
S'atcatalog_data___init__.html'
p53
sS'name'
p54
S'atcatalog/data/__init__'
p55
sS'nums'
p56
g13
(g14
g15
NtRp57
(dp58
g18
I1
sg19
I0
sg20
I1
sg21
I0
sg22
I0
sg23
I0
sg24
I0
sbssg25
S'\xb9Z\x86\xde\x18\xa0\xc6\x95,I\xbeE\xefA\x16\xe9'
p59
ssS'atcatalog_views_sentence'
p60
(dp61
g6
(dp62
S'html_filename'
p63
S'atcatalog_views_sentence.html'
p64
sS'name'
p65
S'atcatalog/views/sentence'
p66
sS'nums'
p67
g13
(g14
g15
NtRp68
(dp69
g18
I1
sg19
I0
sg20
I12
sg21
I0
sg22
I0
sg23
I0
sg24
I0
sbssg25
S'<\x1dH\xe1\xefq\xec_\xb0%\xc9?SY\x06U'
p70
ssS'atcatalog_data_model_database'
p71
(dp72
S'index'
p73
(dp74
S'html_filename'
p75
S'atcatalog_data_model_database.html'
p76
sS'name'
p77
S'atcatalog/data/model_database'
p78
sS'nums'
p79
g13
(g14
g15
NtRp80
(dp81
g18
I1
sg19
I0
sg20
I38
sg21
I0
sg22
I0
sg23
I38
sg24
I0
sbssS'hash'
p82
S'\x06\xe9\xe2b\xa1\xcc\x9c\xb6?\xa9#65\xc5\x19\xd3'
p83
ssS'atcatalog___init__'
p84
(dp85
g6
(dp86
g8
S'atcatalog___init__.html'
p87
sg10
S'atcatalog/__init__'
p88
sg12
g13
(g14
g15
NtRp89
(dp90
g18
I1
sg19
I0
sg20
I6
sg21
I0
sg22
I0
sg23
I0
sg24
I0
sbssg25
S'\xe3\xaaO\xe9\x9e\xfdI\xa6]\x7fJ\xf6o\x1e\xb9\x8a'
p91
ssS'atcatalog_tests_testdbsetup'
p92
(dp93
S'index'
p94
(dp95
S'html_filename'
p96
S'atcatalog_tests_testdbsetup.html'
p97
sS'name'
p98
S'atcatalog/tests/testdbsetup'
p99
sS'nums'
p100
g13
(g14
g15
NtRp101
(dp102
g18
I1
sg19
I12
sg20
I152
sg21
I2
sg22
I0
sg23
I0
sg24
I0
sbssS'hash'
p103
S'K0 \xad\xce\x00\xa3\xda&C\x8fU\xe92\x83C'
p104
ssS'atcatalog_data_dbfill'
p105
(dp106
S'index'
p107
(dp108
S'html_filename'
p109
S'atcatalog_data_dbfill.html'
p110
sS'name'
p111
S'atcatalog/data/dbfill'
p112
sS'nums'
p113
g13
(g14
g15
NtRp114
(dp115
g18
I1
sg19
I0
sg20
I1
sg21
I0
sg22
I0
sg23
I1
sg24
I0
sbssS'hash'
p116
S'\xb7m\xd1\xa4\x9b\xba\xfb\xb2Hciq\xe6\x9d\xa1\x0c'
p117
ssS'atcatalog_data_model'
p118
(dp119
S'index'
p120
(dp121
S'html_filename'
p122
S'atcatalog_data_model.html'
p123
sS'name'
p124
S'atcatalog/data/model'
p125
sS'nums'
p126
g13
(g14
g15
NtRp127
(dp128
g18
I1
sg19
I2
sg20
I32
sg21
I2
sg22
I0
sg23
I32
sg24
I2
sbssS'hash'
p129
S'\x7fM\xe6a\x96\x13\xbb)\xfd\xd3$8\x8b\tM\x81'
p130
ssS'atcatalog_data_dbsetup'
p131
(dp132
g107
(dp133
g96
S'atcatalog_data_dbsetup.html'
p134
sg98
S'atcatalog/data/dbsetup'
p135
sg100
g13
(g14
g15
NtRp136
(dp137
g18
I1
sg19
I4
sg20
I46
sg21
I2
sg22
I0
sg23
I0
sg24
I0
sbssg116
S'\x0b\x0c\xeb+\x13\rtu\x9e\xa4E\xd4\xe2uV\xe2'
p138
ssS'atcatalog_data_origmodel'
p139
(dp140
S'index'
p141
(dp142
S'html_filename'
p143
S'atcatalog_data_origmodel.html'
p144
sS'name'
p145
S'atcatalog/data/origmodel'
p146
sS'nums'
p147
g13
(g14
g15
NtRp148
(dp149
g18
I1
sg19
I0
sg20
I38
sg21
I0
sg22
I0
sg23
I38
sg24
I0
sbssS'hash'
p150
S'\x06\xe9\xe2b\xa1\xcc\x9c\xb6?\xa9#65\xc5\x19\xd3'
p151
ssS'atcatalog_tests_testsentence'
p152
(dp153
S'index'
p154
(dp155
S'html_filename'
p156
S'atcatalog_tests_testsentence.html'
p157
sS'name'
p158
S'atcatalog/tests/testsentence'
p159
sS'nums'
p160
g13
(g14
g15
NtRp161
(dp162
g18
I1
sg19
I0
sg20
I42
sg21
I2
sg22
I0
sg23
I0
sg24
I0
sbssS'hash'
p163
S'c=B\x93\xdf\xde\xbe\x89!\xff\x9eK\xf2klT'
p164
ssS'atcatalog_tests___init__'
p165
(dp166
g6
(dp167
g8
S'atcatalog_tests___init__.html'
p168
sg10
S'atcatalog/tests/__init__'
p169
sg12
g13
(g14
g15
NtRp170
(dp171
g18
I1
sg19
I0
sg20
I0
sg21
I0
sg22
I0
sg23
I0
sg24
I0
sbssg25
S'?l 2\x1b\xae\xe1\xf1\xe2\x1a\xb6]i\x04\xe6\xb2'
p172
ssS'atcatalog_data_fake'
p173
(dp174
g6
(dp175
S'html_filename'
p176
S'atcatalog_data_fake.html'
p177
sS'name'
p178
S'atcatalog/data/fake'
p179
sS'nums'
p180
g13
(g14
g15
NtRp181
(dp182
g18
I1
sg19
I0
sg20
I9
sg21
I0
sg22
I0
sg23
I0
sg24
I0
sbssg25
S'B1f:\x8cEPg\x97\xd5I\xc9\xfcV\t\x8e'
p183
ssS'atcatalog_tests_testmodel'
p184
(dp185
S'index'
p186
(dp187
g143
S'atcatalog_tests_testmodel.html'
p188
sg145
S'atcatalog/tests/testmodel'
p189
sg147
g13
(g14
g15
NtRp190
(dp191
g18
I1
sg19
I0
sg20
I16
sg21
I2
sg22
I0
sg23
I6
sg24
I0
sbssS'hash'
p192
S'R\x9dK \xed\xa8\x1eSg*\x9d\x08\xab\xc4\xf1l'
p193
ssS'atcatalog_data_database'
p194
(dp195
g186
(dp196
S'html_filename'
p197
S'atcatalog_data_database.html'
p198
sS'name'
p199
S'atcatalog/data/database'
p200
sS'nums'
p201
g13
(g14
g15
NtRp202
(dp203
g18
I1
sg19
I0
sg20
I0
sg21
I0
sg22
I0
sg23
I0
sg24
I0
sbssg192
S'\xe5P\x11)^\xf4>1D.\x0e\x0b\xa1\xf8[+'
p204
ssS'atcatalog_tests_testlanguages'
p205
(dp206
g6
(dp207
S'html_filename'
p208
S'atcatalog_tests_testlanguages.html'
p209
sS'name'
p210
S'atcatalog/tests/testlanguages'
p211
sS'nums'
p212
g13
(g14
g15
NtRp213
(dp214
g18
I1
sg19
I2
sg20
I24
sg21
I2
sg22
I0
sg23
I0
sg24
I0
sbssg25
S"j6\xd2')\x8c\xf3\xe7\x85H\x06\xae^\x8e<a"
p215
ssS'atcatalog_data_create_database'
p216
(dp217
g6
(dp218
g8
S'atcatalog_data_create_database.html'
p219
sg10
S'atcatalog/data/create_database'
p220
sg12
g13
(g14
g15
NtRp221
(dp222
g18
I1
sg19
I0
sg20
I38
sg21
I0
sg22
I0
sg23
I38
sg24
I0
sbssg25
S'<T\xa3M\xdf\x8e\xf8$]\x94$\xf1\x94\x1c\x15\xdb'
p223
ssS'atcatalog_tests_testlanguage'
p224
(dp225
S'index'
p226
(dp227
g208
S'atcatalog_tests_testlanguage.html'
p228
sg210
S'atcatalog/tests/testlanguage'
p229
sg212
g13
(g14
g15
NtRp230
(dp231
g18
I1
sg19
I2
sg20
I25
sg21
I2
sg22
I0
sg23
I0
sg24
I0
sbssS'hash'
p232
S')\x83\xc4\xd0\x93+\xbfF\x974e\xb6%\x8a\xe1\xca'
p233
sssS'version'
p234
S'3.7.1'
p235
sS'settings'
p236
S'm^\xd1\rt\xba\x05\xc7,Bm\x10@\xf0\\\x9a'
p237
sS'format'
p238
I1
s.