(dp1
S'files'
p2
(dp3
S'atcatalog_views___init__'
p4
(dp5
S'index'
p6
(dp7
S'html_filename'
p8
S'atcatalog_views___init__.html'
p9
sS'name'
p10
S'atcatalog/views/__init__'
p11
sS'nums'
p12
ccopy_reg
_reconstructor
p13
(ccoverage.results
Numbers
p14
c__builtin__
object
p15
NtRp16
(dp17
S'n_files'
p18
I1
sS'n_branches'
p19
I0
sS'n_statements'
p20
I0
sS'n_excluded'
p21
I0
sS'n_partial_branches'
p22
I0
sS'n_missing'
p23
I0
sS'n_missing_branches'
p24
I0
sbssS'hash'
p25
S'?l 2\x1b\xae\xe1\xf1\xe2\x1a\xb6]i\x04\xe6\xb2'
p26
ssS'atcatalog_views_language'
p27
(dp28
g6
(dp29
S'html_filename'
p30
S'atcatalog_views_language.html'
p31
sS'name'
p32
S'atcatalog/views/language'
p33
sS'nums'
p34
g13
(g14
g15
NtRp35
(dp36
g18
I1
sg19
I0
sg20
I6
sg21
I0
sg22
I0
sg23
I0
sg24
I0
sbssg25
S'\xb6\xad\x81^\x19\xadh\x9fzY\x8e\xa60\x82\x8b\xfb'
p37
ssS'atcatalog_views_languages'
p38
(dp39
g6
(dp40
S'html_filename'
p41
S'atcatalog_views_languages.html'
p42
sS'name'
p43
S'atcatalog/views/languages'
p44
sS'nums'
p45
g13
(g14
g15
NtRp46
(dp47
g18
I1
sg19
I0
sg20
I6
sg21
I0
sg22
I0
sg23
I0
sg24
I0
sbssg25
S'#\xaf\xed\xbc\xa2p\x04\xc9\xff\x0c}\xf7\xae\xa5\x96o'
p48
ssS'atcatalog_data___init__'
p49
(dp50
g6
(dp51
S'html_filename'
p52
S'atcatalog_data___init__.html'
p53
sS'name'
p54
S'atcatalog/data/__init__'
p55
sS'nums'
p56
g13
(g14
g15
NtRp57
(dp58
g18
I1
sg19
I0
sg20
I1
sg21
I0
sg22
I0
sg23
I0
sg24
I0
sbssg25
S'\xb9Z\x86\xde\x18\xa0\xc6\x95,I\xbeE\xefA\x16\xe9'
p59
ssS'atcatalog_views_sentence'
p60
(dp61
g6
(dp62
S'html_filename'
p63
S'atcatalog_views_sentence.html'
p64
sS'name'
p65
S'atcatalog/views/sentence'
p66
sS'nums'
p67
g13
(g14
g15
NtRp68
(dp69
g18
I1
sg19
I0
sg20
I12
sg21
I0
sg22
I0
sg23
I0
sg24
I0
sbssg25
S'<\x1dH\xe1\xefq\xec_\xb0%\xc9?SY\x06U'
p70
ssS'atcatalog_data_model_database'
p71
(dp72
S'index'
p73
(dp74
S'html_filename'
p75
S'atcatalog_data_model_database.html'
p76
sS'name'
p77
S'atcatalog/data/model_database'
p78
sS'nums'
p79
g13
(g14
g15
NtRp80
(dp81
g18
I1
sg19
I0
sg20
I38
sg21
I0
sg22
I0
sg23
I38
sg24
I0
sbssS'hash'
p82
S'\x06\xe9\xe2b\xa1\xcc\x9c\xb6?\xa9#65\xc5\x19\xd3'
p83
ssS'atcatalog_tests_testdbsetup'
p84
(dp85
S'index'
p86
(dp87
S'html_filename'
p88
S'atcatalog_tests_testdbsetup.html'
p89
sS'name'
p90
S'atcatalog/tests/testdbsetup'
p91
sS'nums'
p92
g13
(g14
g15
NtRp93
(dp94
g18
I1
sg19
I18
sg20
I161
sg21
I2
sg22
I0
sg23
I0
sg24
I0
sbssS'hash'
p95
S'\x0fM\x12\n\x06\x1cx\x16x\x00\x97A\x82^\xc6\xed'
p96
ssS'atcatalog_data_dbfill'
p97
(dp98
S'index'
p99
(dp100
S'html_filename'
p101
S'atcatalog_data_dbfill.html'
p102
sS'name'
p103
S'atcatalog/data/dbfill'
p104
sS'nums'
p105
g13
(g14
g15
NtRp106
(dp107
g18
I1
sg19
I6
sg20
I42
sg21
I0
sg22
I0
sg23
I0
sg24
I0
sbssS'hash'
p108
S"\r'yN\x19K(\x86\xc7J}\x0b\xcd\xec\xa03"
p109
ssS'atcatalog_tests___init__'
p110
(dp111
g6
(dp112
g8
S'atcatalog_tests___init__.html'
p113
sg10
S'atcatalog/tests/__init__'
p114
sg12
g13
(g14
g15
NtRp115
(dp116
g18
I1
sg19
I0
sg20
I0
sg21
I0
sg22
I0
sg23
I0
sg24
I0
sbssg25
S'?l 2\x1b\xae\xe1\xf1\xe2\x1a\xb6]i\x04\xe6\xb2'
p117
ssS'atcatalog_data_model'
p118
(dp119
S'index'
p120
(dp121
S'html_filename'
p122
S'atcatalog_data_model.html'
p123
sS'name'
p124
S'atcatalog/data/model'
p125
sS'nums'
p126
g13
(g14
g15
NtRp127
(dp128
g18
I1
sg19
I2
sg20
I32
sg21
I2
sg22
I0
sg23
I32
sg24
I2
sbssS'hash'
p129
S'\x7fM\xe6a\x96\x13\xbb)\xfd\xd3$8\x8b\tM\x81'
p130
ssS'atcatalog_data_dbsetup'
p131
(dp132
g99
(dp133
S'html_filename'
p134
S'atcatalog_data_dbsetup.html'
p135
sS'name'
p136
S'atcatalog/data/dbsetup'
p137
sS'nums'
p138
g13
(g14
g15
NtRp139
(dp140
g18
I1
sg19
I2
sg20
I44
sg21
I2
sg22
I0
sg23
I0
sg24
I0
sbssg108
S's\xa9\xa7\xac\x17W\x81H\x9a\xc0\x8e\xf0\xff\x02\xfc\x1e'
p141
ssS'atcatalog_data_origmodel'
p142
(dp143
S'index'
p144
(dp145
S'html_filename'
p146
S'atcatalog_data_origmodel.html'
p147
sS'name'
p148
S'atcatalog/data/origmodel'
p149
sS'nums'
p150
g13
(g14
g15
NtRp151
(dp152
g18
I1
sg19
I0
sg20
I38
sg21
I0
sg22
I0
sg23
I38
sg24
I0
sbssS'hash'
p153
S'\x06\xe9\xe2b\xa1\xcc\x9c\xb6?\xa9#65\xc5\x19\xd3'
p154
ssS'atcatalog_tests_testsentence'
p155
(dp156
S'index'
p157
(dp158
S'html_filename'
p159
S'atcatalog_tests_testsentence.html'
p160
sS'name'
p161
S'atcatalog/tests/testsentence'
p162
sS'nums'
p163
g13
(g14
g15
NtRp164
(dp165
g18
I1
sg19
I0
sg20
I42
sg21
I2
sg22
I0
sg23
I0
sg24
I0
sbssS'hash'
p166
S'c=B\x93\xdf\xde\xbe\x89!\xff\x9eK\xf2klT'
p167
ssS'atcatalog_data_const'
p168
(dp169
S'index'
p170
(dp171
g134
S'atcatalog_data_const.html'
p172
sg136
S'atcatalog/data/const'
p173
sg138
g13
(g14
g15
NtRp174
(dp175
g18
I1
sg19
I0
sg20
I4
sg21
I0
sg22
I0
sg23
I0
sg24
I0
sbssS'hash'
p176
S'!!\xa3\x19\xf4\x1d:\xd0"\xa0\ta\x04q3\x0b'
p177
ssS'atcatalog_tests_testlanguages'
p178
(dp179
g6
(dp180
S'html_filename'
p181
S'atcatalog_tests_testlanguages.html'
p182
sS'name'
p183
S'atcatalog/tests/testlanguages'
p184
sS'nums'
p185
g13
(g14
g15
NtRp186
(dp187
g18
I1
sg19
I2
sg20
I24
sg21
I2
sg22
I0
sg23
I0
sg24
I0
sbssg25
S"j6\xd2')\x8c\xf3\xe7\x85H\x06\xae^\x8e<a"
p188
ssS'atcatalog_data_fake'
p189
(dp190
g6
(dp191
S'html_filename'
p192
S'atcatalog_data_fake.html'
p193
sS'name'
p194
S'atcatalog/data/fake'
p195
sS'nums'
p196
g13
(g14
g15
NtRp197
(dp198
g18
I1
sg19
I0
sg20
I9
sg21
I0
sg22
I0
sg23
I0
sg24
I0
sbssg25
S"\xda'S\xfd\xfe\x86\x89N\xa1\xac\n\xd7T\xe8h\xb1"
p199
ssS'atcatalog_tests_testmodel'
p200
(dp201
S'index'
p202
(dp203
g146
S'atcatalog_tests_testmodel.html'
p204
sg148
S'atcatalog/tests/testmodel'
p205
sg150
g13
(g14
g15
NtRp206
(dp207
g18
I1
sg19
I0
sg20
I16
sg21
I2
sg22
I0
sg23
I6
sg24
I0
sbssS'hash'
p208
S'R\x9dK \xed\xa8\x1eSg*\x9d\x08\xab\xc4\xf1l'
p209
ssS'atcatalog_data_database'
p210
(dp211
g202
(dp212
S'html_filename'
p213
S'atcatalog_data_database.html'
p214
sS'name'
p215
S'atcatalog/data/database'
p216
sS'nums'
p217
g13
(g14
g15
NtRp218
(dp219
g18
I1
sg19
I0
sg20
I0
sg21
I0
sg22
I0
sg23
I0
sg24
I0
sbssg208
S'\xe5P\x11)^\xf4>1D.\x0e\x0b\xa1\xf8[+'
p220
ssS'atcatalog___init__'
p221
(dp222
g6
(dp223
g8
S'atcatalog___init__.html'
p224
sg10
S'atcatalog/__init__'
p225
sg12
g13
(g14
g15
NtRp226
(dp227
g18
I1
sg19
I0
sg20
I6
sg21
I0
sg22
I0
sg23
I0
sg24
I0
sbssg25
S'\xe3\xaaO\xe9\x9e\xfdI\xa6]\x7fJ\xf6o\x1e\xb9\x8a'
p228
ssS'atcatalog_data_create_database'
p229
(dp230
g6
(dp231
g8
S'atcatalog_data_create_database.html'
p232
sg10
S'atcatalog/data/create_database'
p233
sg12
g13
(g14
g15
NtRp234
(dp235
g18
I1
sg19
I0
sg20
I38
sg21
I0
sg22
I0
sg23
I38
sg24
I0
sbssg25
S'<T\xa3M\xdf\x8e\xf8$]\x94$\xf1\x94\x1c\x15\xdb'
p236
ssS'atcatalog_tests_testlanguage'
p237
(dp238
S'index'
p239
(dp240
g181
S'atcatalog_tests_testlanguage.html'
p241
sg183
S'atcatalog/tests/testlanguage'
p242
sg185
g13
(g14
g15
NtRp243
(dp244
g18
I1
sg19
I2
sg20
I25
sg21
I2
sg22
I0
sg23
I0
sg24
I0
sbssS'hash'
p245
S')\x83\xc4\xd0\x93+\xbfF\x974e\xb6%\x8a\xe1\xca'
p246
sssS'version'
p247
S'3.7.1'
p248
sS'settings'
p249
S'm^\xd1\rt\xba\x05\xc7,Bm\x10@\xf0\\\x9a'
p250
sS'format'
p251
I1
s.