(dp1
S'files'
p2
(dp3
S'atcatalog_views_language'
p4
(dp5
S'index'
p6
(dp7
S'html_filename'
p8
S'atcatalog_views_language.html'
p9
sS'name'
p10
S'atcatalog/views/language'
p11
sS'nums'
p12
ccopy_reg
_reconstructor
p13
(ccoverage.results
Numbers
p14
c__builtin__
object
p15
NtRp16
(dp17
S'n_files'
p18
I1
sS'n_branches'
p19
I0
sS'n_statements'
p20
I6
sS'n_excluded'
p21
I0
sS'n_partial_branches'
p22
I0
sS'n_missing'
p23
I0
sS'n_missing_branches'
p24
I0
sbssS'hash'
p25
S'\xb6\xad\x81^\x19\xadh\x9fzY\x8e\xa60\x82\x8b\xfb'
p26
ssS'atcatalog_data_dbcrud'
p27
(dp28
S'index'
p29
(dp30
S'html_filename'
p31
S'atcatalog_data_dbcrud.html'
p32
sS'name'
p33
S'atcatalog/data/dbcrud'
p34
sS'nums'
p35
g13
(g14
g15
NtRp36
(dp37
g18
I1
sg19
I18
sg20
I20
sg21
I5
sg22
I0
sg23
I20
sg24
I18
sbssS'hash'
p38
S'\xf95\x1e\xb7Q_\xd7qy\x97\xf7\xc9P\xb0B;'
p39
ssS'atcatalog_model_atcaccess'
p40
(dp41
S'index'
p42
(dp43
g31
S'atcatalog_model_atcaccess.html'
p44
sg33
S'atcatalog/model/atcaccess'
p45
sg35
g13
(g14
g15
NtRp46
(dp47
g18
I1
sg19
I10
sg20
I33
sg21
I0
sg22
I0
sg23
I33
sg24
I10
sbssS'hash'
p48
S'\xb7\x00w\x8fD\xe0\x8dE\x87\xe42\x9f\t\xe2\xcd\xf9'
p49
ssS'atcatalog_views_sentence'
p50
(dp51
g6
(dp52
g8
S'atcatalog_views_sentence.html'
p53
sg10
S'atcatalog/views/sentence'
p54
sg12
g13
(g14
g15
NtRp55
(dp56
g18
I1
sg19
I0
sg20
I12
sg21
I0
sg22
I0
sg23
I0
sg24
I0
sbssg25
S'<\x1dH\xe1\xefq\xec_\xb0%\xc9?SY\x06U'
p57
ssS'atcatalog_data_model_database'
p58
(dp59
S'index'
p60
(dp61
S'html_filename'
p62
S'atcatalog_data_model_database.html'
p63
sS'name'
p64
S'atcatalog/data/model_database'
p65
sS'nums'
p66
g13
(g14
g15
NtRp67
(dp68
g18
I1
sg19
I0
sg20
I38
sg21
I0
sg22
I0
sg23
I38
sg24
I0
sbssS'hash'
p69
S'\x06\xe9\xe2b\xa1\xcc\x9c\xb6?\xa9#65\xc5\x19\xd3'
p70
ssS'atcatalog_data_const'
p71
(dp72
S'index'
p73
(dp74
S'html_filename'
p75
S'atcatalog_data_const.html'
p76
sS'name'
p77
S'atcatalog/data/const'
p78
sS'nums'
p79
g13
(g14
g15
NtRp80
(dp81
g18
I1
sg19
I0
sg20
I20
sg21
I0
sg22
I0
sg23
I0
sg24
I0
sbssS'hash'
p82
S'd\x00\xbaJ\xc0fC\\v\x12\xa1\x94\x11BT\x8e'
p83
ssS'atcatalog_tests_testmodel'
p84
(dp85
S'index'
p86
(dp87
S'html_filename'
p88
S'atcatalog_tests_testmodel.html'
p89
sS'name'
p90
S'atcatalog/tests/testmodel'
p91
sS'nums'
p92
g13
(g14
g15
NtRp93
(dp94
g18
I1
sg19
I0
sg20
I16
sg21
I2
sg22
I0
sg23
I6
sg24
I0
sbssS'hash'
p95
S'R\x9dK \xed\xa8\x1eSg*\x9d\x08\xab\xc4\xf1l'
p96
ssS'atcatalog_tests_testlanguages'
p97
(dp98
g6
(dp99
g8
S'atcatalog_tests_testlanguages.html'
p100
sg10
S'atcatalog/tests/testlanguages'
p101
sg12
g13
(g14
g15
NtRp102
(dp103
g18
I1
sg19
I2
sg20
I24
sg21
I2
sg22
I0
sg23
I0
sg24
I0
sbssg25
S"j6\xd2')\x8c\xf3\xe7\x85H\x06\xae^\x8e<a"
p104
ssS'atcatalog_tests_testlanguage'
p105
(dp106
S'index'
p107
(dp108
g8
S'atcatalog_tests_testlanguage.html'
p109
sg10
S'atcatalog/tests/testlanguage'
p110
sg12
g13
(g14
g15
NtRp111
(dp112
g18
I1
sg19
I2
sg20
I25
sg21
I2
sg22
I0
sg23
I0
sg24
I0
sbssS'hash'
p113
S')\x83\xc4\xd0\x93+\xbfF\x974e\xb6%\x8a\xe1\xca'
p114
ssS'atcatalog_views_languages'
p115
(dp116
g6
(dp117
g8
S'atcatalog_views_languages.html'
p118
sg10
S'atcatalog/views/languages'
p119
sg12
g13
(g14
g15
NtRp120
(dp121
g18
I1
sg19
I0
sg20
I6
sg21
I0
sg22
I0
sg23
I0
sg24
I0
sbssg25
S'#\xaf\xed\xbc\xa2p\x04\xc9\xff\x0c}\xf7\xae\xa5\x96o'
p122
ssS'atcatalog_data___init__'
p123
(dp124
g6
(dp125
S'html_filename'
p126
S'atcatalog_data___init__.html'
p127
sS'name'
p128
S'atcatalog/data/__init__'
p129
sS'nums'
p130
g13
(g14
g15
NtRp131
(dp132
g18
I1
sg19
I0
sg20
I1
sg21
I0
sg22
I0
sg23
I0
sg24
I0
sbssg25
S'\xb9Z\x86\xde\x18\xa0\xc6\x95,I\xbeE\xefA\x16\xe9'
p133
ssS'atcatalog_data_database'
p134
(dp135
g86
(dp136
S'html_filename'
p137
S'atcatalog_data_database.html'
p138
sS'name'
p139
S'atcatalog/data/database'
p140
sS'nums'
p141
g13
(g14
g15
NtRp142
(dp143
g18
I1
sg19
I0
sg20
I0
sg21
I0
sg22
I0
sg23
I0
sg24
I0
sbssg95
S'\xe5P\x11)^\xf4>1D.\x0e\x0b\xa1\xf8[+'
p144
ssS'atcatalog_data_dbfill'
p145
(dp146
S'index'
p147
(dp148
S'html_filename'
p149
S'atcatalog_data_dbfill.html'
p150
sS'name'
p151
S'atcatalog/data/dbfill'
p152
sS'nums'
p153
g13
(g14
g15
NtRp154
(dp155
g18
I1
sg19
I6
sg20
I23
sg21
I2
sg22
I0
sg23
I13
sg24
I6
sbssS'hash'
p156
S'Fb>\xdf\x012\xe8\x1d\xc5\x1c\xf0\xcf\xc0U\xfd\x1c'
p157
ssS'atcatalog_data_dbsetup'
p158
(dp159
g147
(dp160
g31
S'atcatalog_data_dbsetup.html'
p161
sg33
S'atcatalog/data/dbsetup'
p162
sg35
g13
(g14
g15
NtRp163
(dp164
g18
I1
sg19
I2
sg20
I52
sg21
I2
sg22
I0
sg23
I18
sg24
I0
sbssg156
S"\xd6f\x83'\xa9\xf3Q{\xbe\x9c{\xfd?\xe7+>"
p165
ssS'atcatalog_data_create_database'
p166
(dp167
g6
(dp168
S'html_filename'
p169
S'atcatalog_data_create_database.html'
p170
sS'name'
p171
S'atcatalog/data/create_database'
p172
sS'nums'
p173
g13
(g14
g15
NtRp174
(dp175
g18
I1
sg19
I0
sg20
I38
sg21
I0
sg22
I0
sg23
I38
sg24
I0
sbssg25
S'<T\xa3M\xdf\x8e\xf8$]\x94$\xf1\x94\x1c\x15\xdb'
p176
ssS'atcatalog_data_fake'
p177
(dp178
g6
(dp179
S'html_filename'
p180
S'atcatalog_data_fake.html'
p181
sS'name'
p182
S'atcatalog/data/fake'
p183
sS'nums'
p184
g13
(g14
g15
NtRp185
(dp186
g18
I1
sg19
I0
sg20
I9
sg21
I0
sg22
I0
sg23
I0
sg24
I0
sbssg25
S"\xda'S\xfd\xfe\x86\x89N\xa1\xac\n\xd7T\xe8h\xb1"
p187
ssS'atcatalog_model_atcmodel'
p188
(dp189
g42
(dp190
S'html_filename'
p191
S'atcatalog_model_atcmodel.html'
p192
sS'name'
p193
S'atcatalog/model/atcmodel'
p194
sS'nums'
p195
g13
(g14
g15
NtRp196
(dp197
g18
I1
sg19
I14
sg20
I131
sg21
I2
sg22
I3
sg23
I43
sg24
I5
sbssg48
S')\xea\xabfl\x92\x96\xe1\xb7\xd1j\x14\x80\xd1\xd6$'
p198
ssS'atcatalog_tests_testdbsetup'
p199
(dp200
S'index'
p201
(dp202
g31
S'atcatalog_tests_testdbsetup.html'
p203
sg33
S'atcatalog/tests/testdbsetup'
p204
sg35
g13
(g14
g15
NtRp205
(dp206
g18
I1
sg19
I2
sg20
I47
sg21
I2
sg22
I0
sg23
I13
sg24
I2
sbssS'hash'
p207
S'Y\xd4\x89l\xf1p\xac\x89\xe1u\xf0Y\xdaA\x05V'
p208
ssS'atcatalog_data_model'
p209
(dp210
S'index'
p211
(dp212
S'html_filename'
p213
S'atcatalog_data_model.html'
p214
sS'name'
p215
S'atcatalog/data/model'
p216
sS'nums'
p217
g13
(g14
g15
NtRp218
(dp219
g18
I1
sg19
I2
sg20
I32
sg21
I2
sg22
I0
sg23
I32
sg24
I2
sbssS'hash'
p220
S'\x7fM\xe6a\x96\x13\xbb)\xfd\xd3$8\x8b\tM\x81'
p221
ssS'atcatalog_tests___init__'
p222
(dp223
g6
(dp224
g169
S'atcatalog_tests___init__.html'
p225
sg171
S'atcatalog/tests/__init__'
p226
sg173
g13
(g14
g15
NtRp227
(dp228
g18
I1
sg19
I0
sg20
I0
sg21
I0
sg22
I0
sg23
I0
sg24
I0
sbssg25
S'?l 2\x1b\xae\xe1\xf1\xe2\x1a\xb6]i\x04\xe6\xb2'
p229
ssS'atcatalog_tests_testgendata'
p230
(dp231
S'index'
p232
(dp233
S'html_filename'
p234
S'atcatalog_tests_testgendata.html'
p235
sS'name'
p236
S'atcatalog/tests/testgendata'
p237
sS'nums'
p238
g13
(g14
g15
NtRp239
(dp240
g18
I1
sg19
I6
sg20
I27
sg21
I2
sg22
I0
sg23
I0
sg24
I0
sbssS'hash'
p241
S'\xdcc<1\xa5=\xb9\x0c\x16Ki\xb2\xf70\xb1>'
p242
ssS'atcatalog_data_gendata'
p243
(dp244
S'index'
p245
(dp246
g234
S'atcatalog_data_gendata.html'
p247
sg236
S'atcatalog/data/gendata'
p248
sg238
g13
(g14
g15
NtRp249
(dp250
g18
I1
sg19
I2
sg20
I30
sg21
I2
sg22
I0
sg23
I0
sg24
I0
sbssS'hash'
p251
S'\xd5mm\x8bG\x06e\x17\xd5da\xa1\x94\xba\xa8J'
p252
ssS'atcatalog_views___init__'
p253
(dp254
g6
(dp255
g169
S'atcatalog_views___init__.html'
p256
sg171
S'atcatalog/views/__init__'
p257
sg173
g13
(g14
g15
NtRp258
(dp259
g18
I1
sg19
I0
sg20
I0
sg21
I0
sg22
I0
sg23
I0
sg24
I0
sbssg25
S'?l 2\x1b\xae\xe1\xf1\xe2\x1a\xb6]i\x04\xe6\xb2'
p260
ssS'atcatalog___init__'
p261
(dp262
g6
(dp263
g31
S'atcatalog___init__.html'
p264
sg33
S'atcatalog/__init__'
p265
sg35
g13
(g14
g15
NtRp266
(dp267
g18
I1
sg19
I0
sg20
I6
sg21
I0
sg22
I0
sg23
I0
sg24
I0
sbssg25
S'\xe3\xaaO\xe9\x9e\xfdI\xa6]\x7fJ\xf6o\x1e\xb9\x8a'
p268
ssS'atcatalog_tests_testatcmodel'
p269
(dp270
S'index'
p271
(dp272
S'html_filename'
p273
S'atcatalog_tests_testatcmodel.html'
p274
sS'name'
p275
S'atcatalog/tests/testatcmodel'
p276
sS'nums'
p277
g13
(g14
g15
NtRp278
(dp279
g18
I1
sg19
I0
sg20
I75
sg21
I2
sg22
I0
sg23
I0
sg24
I0
sbssS'hash'
p280
S'LV\x9f\xebf\xc7\xb5\x93\x12\x86\xe4\x0f\x1e\xd9c\xd1'
p281
ssS'atcatalog_data_origmodel'
p282
(dp283
S'index'
p284
(dp285
g88
S'atcatalog_data_origmodel.html'
p286
sg90
S'atcatalog/data/origmodel'
p287
sg92
g13
(g14
g15
NtRp288
(dp289
g18
I1
sg19
I0
sg20
I38
sg21
I0
sg22
I0
sg23
I38
sg24
I0
sbssS'hash'
p290
S'\x06\xe9\xe2b\xa1\xcc\x9c\xb6?\xa9#65\xc5\x19\xd3'
p291
ssS'atcatalog_data_csvinput'
p292
(dp293
S'index'
p294
(dp295
g31
S'atcatalog_data_csvinput.html'
p296
sg33
S'atcatalog/data/csvinput'
p297
sg35
g13
(g14
g15
NtRp298
(dp299
g18
I1
sg19
I2
sg20
I23
sg21
I2
sg22
I0
sg23
I23
sg24
I2
sbssS'hash'
p300
S'`Z\xd7\xa7\xe7\x7f\x8a\xc4\xb5\x17\x7f\xaej\xa1@;'
p301
ssS'atcatalog_tests_testsentence'
p302
(dp303
S'index'
p304
(dp305
g8
S'atcatalog_tests_testsentence.html'
p306
sg10
S'atcatalog/tests/testsentence'
p307
sg12
g13
(g14
g15
NtRp308
(dp309
g18
I1
sg19
I0
sg20
I42
sg21
I2
sg22
I0
sg23
I0
sg24
I0
sbssS'hash'
p310
S'c=B\x93\xdf\xde\xbe\x89!\xff\x9eK\xf2klT'
p311
ssS'atcatalog_model___init__'
p312
(dp313
g42
(dp314
g31
S'atcatalog_model___init__.html'
p315
sg33
S'atcatalog/model/__init__'
p316
sg35
g13
(g14
g15
NtRp317
(dp318
g18
I1
sg19
I0
sg20
I0
sg21
I0
sg22
I0
sg23
I0
sg24
I0
sbssg48
S'\x19g\xdfM\x1a\x019\xaf\x1baIeR\xe5u\xa7'
p319
sssS'version'
p320
S'3.7.1'
p321
sS'settings'
p322
S'm^\xd1\rt\xba\x05\xc7,Bm\x10@\xf0\\\x9a'
p323
sS'format'
p324
I1
s.