(dp1
S'files'
p2
(dp3
S'atcatalog_views_language'
p4
(dp5
S'index'
p6
(dp7
S'html_filename'
p8
S'atcatalog_views_language.html'
p9
sS'name'
p10
S'atcatalog/views/language'
p11
sS'nums'
p12
ccopy_reg
_reconstructor
p13
(ccoverage.results
Numbers
p14
c__builtin__
object
p15
NtRp16
(dp17
S'n_files'
p18
I1
sS'n_branches'
p19
I0
sS'n_statements'
p20
I6
sS'n_excluded'
p21
I0
sS'n_partial_branches'
p22
I0
sS'n_missing'
p23
I0
sS'n_missing_branches'
p24
I0
sbssS'hash'
p25
S'\xb6\xad\x81^\x19\xadh\x9fzY\x8e\xa60\x82\x8b\xfb'
p26
ssS'atcatalog_views_sentence'
p27
(dp28
g6
(dp29
S'html_filename'
p30
S'atcatalog_views_sentence.html'
p31
sS'name'
p32
S'atcatalog/views/sentence'
p33
sS'nums'
p34
g13
(g14
g15
NtRp35
(dp36
g18
I1
sg19
I0
sg20
I12
sg21
I0
sg22
I0
sg23
I0
sg24
I0
sbssg25
S'<\x1dH\xe1\xefq\xec_\xb0%\xc9?SY\x06U'
p37
ssS'atcatalog_data_model_database'
p38
(dp39
S'index'
p40
(dp41
S'html_filename'
p42
S'atcatalog_data_model_database.html'
p43
sS'name'
p44
S'atcatalog/data/model_database'
p45
sS'nums'
p46
g13
(g14
g15
NtRp47
(dp48
g18
I1
sg19
I0
sg20
I38
sg21
I0
sg22
I0
sg23
I38
sg24
I0
sbssS'hash'
p49
S'\x06\xe9\xe2b\xa1\xcc\x9c\xb6?\xa9#65\xc5\x19\xd3'
p50
ssS'atcatalog_data_const'
p51
(dp52
S'index'
p53
(dp54
S'html_filename'
p55
S'atcatalog_data_const.html'
p56
sS'name'
p57
S'atcatalog/data/const'
p58
sS'nums'
p59
g13
(g14
g15
NtRp60
(dp61
g18
I1
sg19
I0
sg20
I9
sg21
I0
sg22
I0
sg23
I0
sg24
I0
sbssS'hash'
p62
S'!\xbd\x8a\x8c\x03\x12)i\x80WG\x82>\x93\xaa\xf1'
p63
ssS'atcatalog_tests_testmodel'
p64
(dp65
S'index'
p66
(dp67
S'html_filename'
p68
S'atcatalog_tests_testmodel.html'
p69
sS'name'
p70
S'atcatalog/tests/testmodel'
p71
sS'nums'
p72
g13
(g14
g15
NtRp73
(dp74
g18
I1
sg19
I0
sg20
I16
sg21
I2
sg22
I0
sg23
I6
sg24
I0
sbssS'hash'
p75
S'R\x9dK \xed\xa8\x1eSg*\x9d\x08\xab\xc4\xf1l'
p76
ssS'atcatalog_tests_testlanguages'
p77
(dp78
g6
(dp79
S'html_filename'
p80
S'atcatalog_tests_testlanguages.html'
p81
sS'name'
p82
S'atcatalog/tests/testlanguages'
p83
sS'nums'
p84
g13
(g14
g15
NtRp85
(dp86
g18
I1
sg19
I2
sg20
I24
sg21
I2
sg22
I0
sg23
I0
sg24
I0
sbssg25
S"j6\xd2')\x8c\xf3\xe7\x85H\x06\xae^\x8e<a"
p87
ssS'atcatalog_views_languages'
p88
(dp89
g6
(dp90
S'html_filename'
p91
S'atcatalog_views_languages.html'
p92
sS'name'
p93
S'atcatalog/views/languages'
p94
sS'nums'
p95
g13
(g14
g15
NtRp96
(dp97
g18
I1
sg19
I0
sg20
I6
sg21
I0
sg22
I0
sg23
I0
sg24
I0
sbssg25
S'#\xaf\xed\xbc\xa2p\x04\xc9\xff\x0c}\xf7\xae\xa5\x96o'
p98
ssS'atcatalog_data___init__'
p99
(dp100
g6
(dp101
S'html_filename'
p102
S'atcatalog_data___init__.html'
p103
sS'name'
p104
S'atcatalog/data/__init__'
p105
sS'nums'
p106
g13
(g14
g15
NtRp107
(dp108
g18
I1
sg19
I0
sg20
I1
sg21
I0
sg22
I0
sg23
I0
sg24
I0
sbssg25
S'\xb9Z\x86\xde\x18\xa0\xc6\x95,I\xbeE\xefA\x16\xe9'
p109
ssS'atcatalog_data_database'
p110
(dp111
g66
(dp112
S'html_filename'
p113
S'atcatalog_data_database.html'
p114
sS'name'
p115
S'atcatalog/data/database'
p116
sS'nums'
p117
g13
(g14
g15
NtRp118
(dp119
g18
I1
sg19
I0
sg20
I0
sg21
I0
sg22
I0
sg23
I0
sg24
I0
sbssg75
S'\xe5P\x11)^\xf4>1D.\x0e\x0b\xa1\xf8[+'
p120
ssS'atcatalog_data_dbfill'
p121
(dp122
S'index'
p123
(dp124
S'html_filename'
p125
S'atcatalog_data_dbfill.html'
p126
sS'name'
p127
S'atcatalog/data/dbfill'
p128
sS'nums'
p129
g13
(g14
g15
NtRp130
(dp131
g18
I1
sg19
I10
sg20
I44
sg21
I5
sg22
I1
sg23
I0
sg24
I1
sbssS'hash'
p132
S'\xba\xbb\xe2rMr\xd3\xdam\xa9ND\xf3\xc3.i'
p133
ssS'atcatalog_data_dbsetup'
p134
(dp135
g123
(dp136
S'html_filename'
p137
S'atcatalog_data_dbsetup.html'
p138
sS'name'
p139
S'atcatalog/data/dbsetup'
p140
sS'nums'
p141
g13
(g14
g15
NtRp142
(dp143
g18
I1
sg19
I2
sg20
I47
sg21
I2
sg22
I0
sg23
I1
sg24
I0
sbssg132
S'\xe3\x1bO\xc2\xb1\x90\xeb\xb9Z\xeb\x8a\xa3B7-d'
p144
ssS'atcatalog_data_create_database'
p145
(dp146
g6
(dp147
S'html_filename'
p148
S'atcatalog_data_create_database.html'
p149
sS'name'
p150
S'atcatalog/data/create_database'
p151
sS'nums'
p152
g13
(g14
g15
NtRp153
(dp154
g18
I1
sg19
I0
sg20
I38
sg21
I0
sg22
I0
sg23
I38
sg24
I0
sbssg25
S'<T\xa3M\xdf\x8e\xf8$]\x94$\xf1\x94\x1c\x15\xdb'
p155
ssS'atcatalog_data_fake'
p156
(dp157
g6
(dp158
S'html_filename'
p159
S'atcatalog_data_fake.html'
p160
sS'name'
p161
S'atcatalog/data/fake'
p162
sS'nums'
p163
g13
(g14
g15
NtRp164
(dp165
g18
I1
sg19
I0
sg20
I9
sg21
I0
sg22
I0
sg23
I0
sg24
I0
sbssg25
S"\xda'S\xfd\xfe\x86\x89N\xa1\xac\n\xd7T\xe8h\xb1"
p166
ssS'atcatalog_tests_testdbsetup'
p167
(dp168
S'index'
p169
(dp170
g137
S'atcatalog_tests_testdbsetup.html'
p171
sg139
S'atcatalog/tests/testdbsetup'
p172
sg141
g13
(g14
g15
NtRp173
(dp174
g18
I1
sg19
I18
sg20
I188
sg21
I2
sg22
I0
sg23
I0
sg24
I0
sbssS'hash'
p175
S'/\xbeD\x16\xb9x\x88}d\xec\xdd\x8c\x8fEO\x9f'
p176
ssS'atcatalog_data_model'
p177
(dp178
S'index'
p179
(dp180
S'html_filename'
p181
S'atcatalog_data_model.html'
p182
sS'name'
p183
S'atcatalog/data/model'
p184
sS'nums'
p185
g13
(g14
g15
NtRp186
(dp187
g18
I1
sg19
I2
sg20
I32
sg21
I2
sg22
I0
sg23
I32
sg24
I2
sbssS'hash'
p188
S'\x7fM\xe6a\x96\x13\xbb)\xfd\xd3$8\x8b\tM\x81'
p189
ssS'atcatalog_tests_testlanguage'
p190
(dp191
S'index'
p192
(dp193
g80
S'atcatalog_tests_testlanguage.html'
p194
sg82
S'atcatalog/tests/testlanguage'
p195
sg84
g13
(g14
g15
NtRp196
(dp197
g18
I1
sg19
I2
sg20
I25
sg21
I2
sg22
I0
sg23
I0
sg24
I0
sbssS'hash'
p198
S')\x83\xc4\xd0\x93+\xbfF\x974e\xb6%\x8a\xe1\xca'
p199
ssS'atcatalog_views___init__'
p200
(dp201
g6
(dp202
g148
S'atcatalog_views___init__.html'
p203
sg150
S'atcatalog/views/__init__'
p204
sg152
g13
(g14
g15
NtRp205
(dp206
g18
I1
sg19
I0
sg20
I0
sg21
I0
sg22
I0
sg23
I0
sg24
I0
sbssg25
S'?l 2\x1b\xae\xe1\xf1\xe2\x1a\xb6]i\x04\xe6\xb2'
p207
ssS'atcatalog_tests___init__'
p208
(dp209
g6
(dp210
g148
S'atcatalog_tests___init__.html'
p211
sg150
S'atcatalog/tests/__init__'
p212
sg152
g13
(g14
g15
NtRp213
(dp214
g18
I1
sg19
I0
sg20
I0
sg21
I0
sg22
I0
sg23
I0
sg24
I0
sbssg25
S'?l 2\x1b\xae\xe1\xf1\xe2\x1a\xb6]i\x04\xe6\xb2'
p215
ssS'atcatalog_data_origmodel'
p216
(dp217
S'index'
p218
(dp219
g68
S'atcatalog_data_origmodel.html'
p220
sg70
S'atcatalog/data/origmodel'
p221
sg72
g13
(g14
g15
NtRp222
(dp223
g18
I1
sg19
I0
sg20
I38
sg21
I0
sg22
I0
sg23
I38
sg24
I0
sbssS'hash'
p224
S'\x06\xe9\xe2b\xa1\xcc\x9c\xb6?\xa9#65\xc5\x19\xd3'
p225
ssS'atcatalog_data_csvinput'
p226
(dp227
S'index'
p228
(dp229
g55
S'atcatalog_data_csvinput.html'
p230
sg57
S'atcatalog/data/csvinput'
p231
sg59
g13
(g14
g15
NtRp232
(dp233
g18
I1
sg19
I2
sg20
I22
sg21
I2
sg22
I0
sg23
I12
sg24
I2
sbssS'hash'
p234
S'\x1f\xdb<Vhfq\xf6\x98\xdc\x14\xf9\x0fY@%'
p235
ssS'atcatalog_tests_testsentence'
p236
(dp237
S'index'
p238
(dp239
S'html_filename'
p240
S'atcatalog_tests_testsentence.html'
p241
sS'name'
p242
S'atcatalog/tests/testsentence'
p243
sS'nums'
p244
g13
(g14
g15
NtRp245
(dp246
g18
I1
sg19
I0
sg20
I42
sg21
I2
sg22
I0
sg23
I0
sg24
I0
sbssS'hash'
p247
S'c=B\x93\xdf\xde\xbe\x89!\xff\x9eK\xf2klT'
p248
ssS'atcatalog___init__'
p249
(dp250
g6
(dp251
S'html_filename'
p252
S'atcatalog___init__.html'
p253
sS'name'
p254
S'atcatalog/__init__'
p255
sS'nums'
p256
g13
(g14
g15
NtRp257
(dp258
g18
I1
sg19
I2
sg20
I14
sg21
I0
sg22
I1
sg23
I0
sg24
I1
sbssg25
S'\x00\xdf\xe9b\xda\xdef\x9e6\x8e\xcc\x82U\xb5\x0fv'
p259
sssS'version'
p260
S'3.7.1'
p261
sS'settings'
p262
S'm^\xd1\rt\xba\x05\xc7,Bm\x10@\xf0\\\x9a'
p263
sS'format'
p264
I1
s.