(dp1
S'files'
p2
(dp3
S'atcatalog_views___init__'
p4
(dp5
S'index'
p6
(dp7
S'html_filename'
p8
S'atcatalog_views___init__.html'
p9
sS'name'
p10
S'atcatalog/views/__init__'
p11
sS'nums'
p12
ccopy_reg
_reconstructor
p13
(ccoverage.results
Numbers
p14
c__builtin__
object
p15
NtRp16
(dp17
S'n_files'
p18
I1
sS'n_branches'
p19
I0
sS'n_statements'
p20
I0
sS'n_excluded'
p21
I0
sS'n_partial_branches'
p22
I0
sS'n_missing'
p23
I0
sS'n_missing_branches'
p24
I0
sbssS'hash'
p25
S'?l 2\x1b\xae\xe1\xf1\xe2\x1a\xb6]i\x04\xe6\xb2'
p26
ssS'atcatalog_views_language'
p27
(dp28
g6
(dp29
S'html_filename'
p30
S'atcatalog_views_language.html'
p31
sS'name'
p32
S'atcatalog/views/language'
p33
sS'nums'
p34
g13
(g14
g15
NtRp35
(dp36
g18
I1
sg19
I0
sg20
I6
sg21
I0
sg22
I0
sg23
I0
sg24
I0
sbssg25
S'\xb6\xad\x81^\x19\xadh\x9fzY\x8e\xa60\x82\x8b\xfb'
p37
ssS'atcatalog_views_languages'
p38
(dp39
g6
(dp40
S'html_filename'
p41
S'atcatalog_views_languages.html'
p42
sS'name'
p43
S'atcatalog/views/languages'
p44
sS'nums'
p45
g13
(g14
g15
NtRp46
(dp47
g18
I1
sg19
I0
sg20
I6
sg21
I0
sg22
I0
sg23
I0
sg24
I0
sbssg25
S'#\xaf\xed\xbc\xa2p\x04\xc9\xff\x0c}\xf7\xae\xa5\x96o'
p48
ssS'atcatalog_data___init__'
p49
(dp50
g6
(dp51
S'html_filename'
p52
S'atcatalog_data___init__.html'
p53
sS'name'
p54
S'atcatalog/data/__init__'
p55
sS'nums'
p56
g13
(g14
g15
NtRp57
(dp58
g18
I1
sg19
I0
sg20
I1
sg21
I0
sg22
I0
sg23
I0
sg24
I0
sbssg25
S'\xb9Z\x86\xde\x18\xa0\xc6\x95,I\xbeE\xefA\x16\xe9'
p59
ssS'atcatalog_views_sentence'
p60
(dp61
g6
(dp62
S'html_filename'
p63
S'atcatalog_views_sentence.html'
p64
sS'name'
p65
S'atcatalog/views/sentence'
p66
sS'nums'
p67
g13
(g14
g15
NtRp68
(dp69
g18
I1
sg19
I0
sg20
I12
sg21
I0
sg22
I0
sg23
I0
sg24
I0
sbssg25
S'<\x1dH\xe1\xefq\xec_\xb0%\xc9?SY\x06U'
p70
ssS'atcatalog_data_model_database'
p71
(dp72
S'index'
p73
(dp74
S'html_filename'
p75
S'atcatalog_data_model_database.html'
p76
sS'name'
p77
S'atcatalog/data/model_database'
p78
sS'nums'
p79
g13
(g14
g15
NtRp80
(dp81
g18
I1
sg19
I0
sg20
I38
sg21
I0
sg22
I0
sg23
I38
sg24
I0
sbssS'hash'
p82
S'\x06\xe9\xe2b\xa1\xcc\x9c\xb6?\xa9#65\xc5\x19\xd3'
p83
ssS'atcatalog_tests_testdbsetup'
p84
(dp85
S'index'
p86
(dp87
S'html_filename'
p88
S'atcatalog_tests_testdbsetup.html'
p89
sS'name'
p90
S'atcatalog/tests/testdbsetup'
p91
sS'nums'
p92
g13
(g14
g15
NtRp93
(dp94
g18
I1
sg19
I12
sg20
I165
sg21
I2
sg22
I0
sg23
I0
sg24
I0
sbssS'hash'
p95
S'\xd1"i\x9d_\xbfLg\x9f%\x19\xfb7A\x86\x06'
p96
ssS'atcatalog_data_dbfill'
p97
(dp98
S'index'
p99
(dp100
S'html_filename'
p101
S'atcatalog_data_dbfill.html'
p102
sS'name'
p103
S'atcatalog/data/dbfill'
p104
sS'nums'
p105
g13
(g14
g15
NtRp106
(dp107
g18
I1
sg19
I0
sg20
I1
sg21
I0
sg22
I0
sg23
I1
sg24
I0
sbssS'hash'
p108
S'\xb7m\xd1\xa4\x9b\xba\xfb\xb2Hciq\xe6\x9d\xa1\x0c'
p109
ssS'atcatalog_data_model'
p110
(dp111
S'index'
p112
(dp113
S'html_filename'
p114
S'atcatalog_data_model.html'
p115
sS'name'
p116
S'atcatalog/data/model'
p117
sS'nums'
p118
g13
(g14
g15
NtRp119
(dp120
g18
I1
sg19
I2
sg20
I32
sg21
I2
sg22
I0
sg23
I32
sg24
I2
sbssS'hash'
p121
S'\x7fM\xe6a\x96\x13\xbb)\xfd\xd3$8\x8b\tM\x81'
p122
ssS'atcatalog_data_dbsetup'
p123
(dp124
g99
(dp125
S'html_filename'
p126
S'atcatalog_data_dbsetup.html'
p127
sS'name'
p128
S'atcatalog/data/dbsetup'
p129
sS'nums'
p130
g13
(g14
g15
NtRp131
(dp132
g18
I1
sg19
I2
sg20
I43
sg21
I2
sg22
I0
sg23
I0
sg24
I0
sbssg108
S'\xab\n\xd4\xb2cg\xea\xb8\x9dj>n$O\x83/'
p133
ssS'atcatalog_data_origmodel'
p134
(dp135
S'index'
p136
(dp137
S'html_filename'
p138
S'atcatalog_data_origmodel.html'
p139
sS'name'
p140
S'atcatalog/data/origmodel'
p141
sS'nums'
p142
g13
(g14
g15
NtRp143
(dp144
g18
I1
sg19
I0
sg20
I38
sg21
I0
sg22
I0
sg23
I38
sg24
I0
sbssS'hash'
p145
S'\x06\xe9\xe2b\xa1\xcc\x9c\xb6?\xa9#65\xc5\x19\xd3'
p146
ssS'atcatalog_tests_testsentence'
p147
(dp148
S'index'
p149
(dp150
S'html_filename'
p151
S'atcatalog_tests_testsentence.html'
p152
sS'name'
p153
S'atcatalog/tests/testsentence'
p154
sS'nums'
p155
g13
(g14
g15
NtRp156
(dp157
g18
I1
sg19
I0
sg20
I42
sg21
I2
sg22
I0
sg23
I0
sg24
I0
sbssS'hash'
p158
S'c=B\x93\xdf\xde\xbe\x89!\xff\x9eK\xf2klT'
p159
ssS'atcatalog_tests___init__'
p160
(dp161
g6
(dp162
g8
S'atcatalog_tests___init__.html'
p163
sg10
S'atcatalog/tests/__init__'
p164
sg12
g13
(g14
g15
NtRp165
(dp166
g18
I1
sg19
I0
sg20
I0
sg21
I0
sg22
I0
sg23
I0
sg24
I0
sbssg25
S'?l 2\x1b\xae\xe1\xf1\xe2\x1a\xb6]i\x04\xe6\xb2'
p167
ssS'atcatalog_tests_testlanguages'
p168
(dp169
g6
(dp170
S'html_filename'
p171
S'atcatalog_tests_testlanguages.html'
p172
sS'name'
p173
S'atcatalog/tests/testlanguages'
p174
sS'nums'
p175
g13
(g14
g15
NtRp176
(dp177
g18
I1
sg19
I2
sg20
I24
sg21
I2
sg22
I0
sg23
I0
sg24
I0
sbssg25
S"j6\xd2')\x8c\xf3\xe7\x85H\x06\xae^\x8e<a"
p178
ssS'atcatalog_data_fake'
p179
(dp180
g6
(dp181
S'html_filename'
p182
S'atcatalog_data_fake.html'
p183
sS'name'
p184
S'atcatalog/data/fake'
p185
sS'nums'
p186
g13
(g14
g15
NtRp187
(dp188
g18
I1
sg19
I0
sg20
I9
sg21
I0
sg22
I0
sg23
I0
sg24
I0
sbssg25
S'B1f:\x8cEPg\x97\xd5I\xc9\xfcV\t\x8e'
p189
ssS'atcatalog_tests_testmodel'
p190
(dp191
S'index'
p192
(dp193
g138
S'atcatalog_tests_testmodel.html'
p194
sg140
S'atcatalog/tests/testmodel'
p195
sg142
g13
(g14
g15
NtRp196
(dp197
g18
I1
sg19
I0
sg20
I16
sg21
I2
sg22
I0
sg23
I6
sg24
I0
sbssS'hash'
p198
S'R\x9dK \xed\xa8\x1eSg*\x9d\x08\xab\xc4\xf1l'
p199
ssS'atcatalog_data_database'
p200
(dp201
g192
(dp202
S'html_filename'
p203
S'atcatalog_data_database.html'
p204
sS'name'
p205
S'atcatalog/data/database'
p206
sS'nums'
p207
g13
(g14
g15
NtRp208
(dp209
g18
I1
sg19
I0
sg20
I0
sg21
I0
sg22
I0
sg23
I0
sg24
I0
sbssg198
S'\xe5P\x11)^\xf4>1D.\x0e\x0b\xa1\xf8[+'
p210
ssS'atcatalog___init__'
p211
(dp212
g6
(dp213
g8
S'atcatalog___init__.html'
p214
sg10
S'atcatalog/__init__'
p215
sg12
g13
(g14
g15
NtRp216
(dp217
g18
I1
sg19
I0
sg20
I6
sg21
I0
sg22
I0
sg23
I0
sg24
I0
sbssg25
S'\xe3\xaaO\xe9\x9e\xfdI\xa6]\x7fJ\xf6o\x1e\xb9\x8a'
p218
ssS'atcatalog_data_create_database'
p219
(dp220
g6
(dp221
g8
S'atcatalog_data_create_database.html'
p222
sg10
S'atcatalog/data/create_database'
p223
sg12
g13
(g14
g15
NtRp224
(dp225
g18
I1
sg19
I0
sg20
I38
sg21
I0
sg22
I0
sg23
I38
sg24
I0
sbssg25
S'<T\xa3M\xdf\x8e\xf8$]\x94$\xf1\x94\x1c\x15\xdb'
p226
ssS'atcatalog_tests_testlanguage'
p227
(dp228
S'index'
p229
(dp230
g171
S'atcatalog_tests_testlanguage.html'
p231
sg173
S'atcatalog/tests/testlanguage'
p232
sg175
g13
(g14
g15
NtRp233
(dp234
g18
I1
sg19
I2
sg20
I25
sg21
I2
sg22
I0
sg23
I0
sg24
I0
sbssS'hash'
p235
S')\x83\xc4\xd0\x93+\xbfF\x974e\xb6%\x8a\xe1\xca'
p236
sssS'version'
p237
S'3.7.1'
p238
sS'settings'
p239
S'm^\xd1\rt\xba\x05\xc7,Bm\x10@\xf0\\\x9a'
p240
sS'format'
p241
I1
s.