(dp1
S'files'
p2
(dp3
S'atcatalog_views_language'
p4
(dp5
S'index'
p6
(dp7
S'html_filename'
p8
S'atcatalog_views_language.html'
p9
sS'name'
p10
S'atcatalog/views/language'
p11
sS'nums'
p12
ccopy_reg
_reconstructor
p13
(ccoverage.results
Numbers
p14
c__builtin__
object
p15
NtRp16
(dp17
S'n_files'
p18
I1
sS'n_branches'
p19
I0
sS'n_statements'
p20
I6
sS'n_excluded'
p21
I0
sS'n_partial_branches'
p22
I0
sS'n_missing'
p23
I0
sS'n_missing_branches'
p24
I0
sbssS'hash'
p25
S'\xb6\xad\x81^\x19\xadh\x9fzY\x8e\xa60\x82\x8b\xfb'
p26
ssS'atcatalog_data_dbcrud'
p27
(dp28
S'index'
p29
(dp30
S'html_filename'
p31
S'atcatalog_data_dbcrud.html'
p32
sS'name'
p33
S'atcatalog/data/dbcrud'
p34
sS'nums'
p35
g13
(g14
g15
NtRp36
(dp37
g18
I1
sg19
I18
sg20
I20
sg21
I5
sg22
I0
sg23
I20
sg24
I18
sbssS'hash'
p38
S'\xf95\x1e\xb7Q_\xd7qy\x97\xf7\xc9P\xb0B;'
p39
ssS'atcatalog_model_atcaccess'
p40
(dp41
S'index'
p42
(dp43
g31
S'atcatalog_model_atcaccess.html'
p44
sg33
S'atcatalog/model/atcaccess'
p45
sg35
g13
(g14
g15
NtRp46
(dp47
g18
I1
sg19
I10
sg20
I33
sg21
I0
sg22
I0
sg23
I33
sg24
I10
sbssS'hash'
p48
S'\xb7\x00w\x8fD\xe0\x8dE\x87\xe42\x9f\t\xe2\xcd\xf9'
p49
ssS'atcatalog_views_sentence'
p50
(dp51
g6
(dp52
S'html_filename'
p53
S'atcatalog_views_sentence.html'
p54
sS'name'
p55
S'atcatalog/views/sentence'
p56
sS'nums'
p57
g13
(g14
g15
NtRp58
(dp59
g18
I1
sg19
I0
sg20
I12
sg21
I0
sg22
I0
sg23
I0
sg24
I0
sbssg25
S'<\x1dH\xe1\xefq\xec_\xb0%\xc9?SY\x06U'
p60
ssS'atcatalog_data_model_database'
p61
(dp62
S'index'
p63
(dp64
S'html_filename'
p65
S'atcatalog_data_model_database.html'
p66
sS'name'
p67
S'atcatalog/data/model_database'
p68
sS'nums'
p69
g13
(g14
g15
NtRp70
(dp71
g18
I1
sg19
I0
sg20
I38
sg21
I0
sg22
I0
sg23
I38
sg24
I0
sbssS'hash'
p72
S'\x06\xe9\xe2b\xa1\xcc\x9c\xb6?\xa9#65\xc5\x19\xd3'
p73
ssS'atcatalog___init__'
p74
(dp75
g6
(dp76
g31
S'atcatalog___init__.html'
p77
sg33
S'atcatalog/__init__'
p78
sg35
g13
(g14
g15
NtRp79
(dp80
g18
I1
sg19
I0
sg20
I6
sg21
I0
sg22
I0
sg23
I0
sg24
I0
sbssg25
S'\xe3\xaaO\xe9\x9e\xfdI\xa6]\x7fJ\xf6o\x1e\xb9\x8a'
p81
ssS'atcatalog_data_const'
p82
(dp83
S'index'
p84
(dp85
S'html_filename'
p86
S'atcatalog_data_const.html'
p87
sS'name'
p88
S'atcatalog/data/const'
p89
sS'nums'
p90
g13
(g14
g15
NtRp91
(dp92
g18
I1
sg19
I0
sg20
I20
sg21
I0
sg22
I0
sg23
I0
sg24
I0
sbssS'hash'
p93
S'd\x00\xbaJ\xc0fC\\v\x12\xa1\x94\x11BT\x8e'
p94
ssS'atcatalog_tests_testmodel'
p95
(dp96
S'index'
p97
(dp98
S'html_filename'
p99
S'atcatalog_tests_testmodel.html'
p100
sS'name'
p101
S'atcatalog/tests/testmodel'
p102
sS'nums'
p103
g13
(g14
g15
NtRp104
(dp105
g18
I1
sg19
I0
sg20
I16
sg21
I2
sg22
I0
sg23
I6
sg24
I0
sbssS'hash'
p106
S'R\x9dK \xed\xa8\x1eSg*\x9d\x08\xab\xc4\xf1l'
p107
ssS'atcatalog_tests_testlanguages'
p108
(dp109
g6
(dp110
g8
S'atcatalog_tests_testlanguages.html'
p111
sg10
S'atcatalog/tests/testlanguages'
p112
sg12
g13
(g14
g15
NtRp113
(dp114
g18
I1
sg19
I2
sg20
I24
sg21
I2
sg22
I0
sg23
I0
sg24
I0
sbssg25
S"j6\xd2')\x8c\xf3\xe7\x85H\x06\xae^\x8e<a"
p115
ssS'atcatalog_views_languages'
p116
(dp117
g6
(dp118
g8
S'atcatalog_views_languages.html'
p119
sg10
S'atcatalog/views/languages'
p120
sg12
g13
(g14
g15
NtRp121
(dp122
g18
I1
sg19
I0
sg20
I6
sg21
I0
sg22
I0
sg23
I0
sg24
I0
sbssg25
S'#\xaf\xed\xbc\xa2p\x04\xc9\xff\x0c}\xf7\xae\xa5\x96o'
p123
ssS'atcatalog_data___init__'
p124
(dp125
g6
(dp126
S'html_filename'
p127
S'atcatalog_data___init__.html'
p128
sS'name'
p129
S'atcatalog/data/__init__'
p130
sS'nums'
p131
g13
(g14
g15
NtRp132
(dp133
g18
I1
sg19
I0
sg20
I1
sg21
I0
sg22
I0
sg23
I0
sg24
I0
sbssg25
S'\xb9Z\x86\xde\x18\xa0\xc6\x95,I\xbeE\xefA\x16\xe9'
p134
ssS'atcatalog_data_database'
p135
(dp136
g97
(dp137
S'html_filename'
p138
S'atcatalog_data_database.html'
p139
sS'name'
p140
S'atcatalog/data/database'
p141
sS'nums'
p142
g13
(g14
g15
NtRp143
(dp144
g18
I1
sg19
I0
sg20
I0
sg21
I0
sg22
I0
sg23
I0
sg24
I0
sbssg106
S'\xe5P\x11)^\xf4>1D.\x0e\x0b\xa1\xf8[+'
p145
ssS'atcatalog_data_dbfill'
p146
(dp147
S'index'
p148
(dp149
S'html_filename'
p150
S'atcatalog_data_dbfill.html'
p151
sS'name'
p152
S'atcatalog/data/dbfill'
p153
sS'nums'
p154
g13
(g14
g15
NtRp155
(dp156
g18
I1
sg19
I6
sg20
I23
sg21
I2
sg22
I0
sg23
I13
sg24
I6
sbssS'hash'
p157
S'Fb>\xdf\x012\xe8\x1d\xc5\x1c\xf0\xcf\xc0U\xfd\x1c'
p158
ssS'atcatalog_model___init__'
p159
(dp160
g42
(dp161
g31
S'atcatalog_model___init__.html'
p162
sg33
S'atcatalog/model/__init__'
p163
sg35
g13
(g14
g15
NtRp164
(dp165
g18
I1
sg19
I0
sg20
I0
sg21
I0
sg22
I0
sg23
I0
sg24
I0
sbssg48
S'\x19g\xdfM\x1a\x019\xaf\x1baIeR\xe5u\xa7'
p166
ssS'atcatalog_data_dbsetup'
p167
(dp168
g148
(dp169
g31
S'atcatalog_data_dbsetup.html'
p170
sg33
S'atcatalog/data/dbsetup'
p171
sg35
g13
(g14
g15
NtRp172
(dp173
g18
I1
sg19
I2
sg20
I52
sg21
I2
sg22
I0
sg23
I18
sg24
I0
sbssg157
S"\xd6f\x83'\xa9\xf3Q{\xbe\x9c{\xfd?\xe7+>"
p174
ssS'atcatalog_data_create_database'
p175
(dp176
g6
(dp177
S'html_filename'
p178
S'atcatalog_data_create_database.html'
p179
sS'name'
p180
S'atcatalog/data/create_database'
p181
sS'nums'
p182
g13
(g14
g15
NtRp183
(dp184
g18
I1
sg19
I0
sg20
I38
sg21
I0
sg22
I0
sg23
I38
sg24
I0
sbssg25
S'<T\xa3M\xdf\x8e\xf8$]\x94$\xf1\x94\x1c\x15\xdb'
p185
ssS'atcatalog_data_fake'
p186
(dp187
g6
(dp188
S'html_filename'
p189
S'atcatalog_data_fake.html'
p190
sS'name'
p191
S'atcatalog/data/fake'
p192
sS'nums'
p193
g13
(g14
g15
NtRp194
(dp195
g18
I1
sg19
I0
sg20
I9
sg21
I0
sg22
I0
sg23
I0
sg24
I0
sbssg25
S"\xda'S\xfd\xfe\x86\x89N\xa1\xac\n\xd7T\xe8h\xb1"
p196
ssS'atcatalog_views___init__'
p197
(dp198
g6
(dp199
g178
S'atcatalog_views___init__.html'
p200
sg180
S'atcatalog/views/__init__'
p201
sg182
g13
(g14
g15
NtRp202
(dp203
g18
I1
sg19
I0
sg20
I0
sg21
I0
sg22
I0
sg23
I0
sg24
I0
sbssg25
S'?l 2\x1b\xae\xe1\xf1\xe2\x1a\xb6]i\x04\xe6\xb2'
p204
ssS'atcatalog_model_ormhelper'
p205
(dp206
S'index'
p207
(dp208
S'html_filename'
p209
S'atcatalog_model_ormhelper.html'
p210
sS'name'
p211
S'atcatalog/model/ormhelper'
p212
sS'nums'
p213
g13
(g14
g15
NtRp214
(dp215
g18
I1
sg19
I6
sg20
I29
sg21
I0
sg22
I0
sg23
I0
sg24
I0
sbssS'hash'
p216
S'\x15\xda\xfc\xa9L[\x916\xc1C\xd6zK\xe5\x87\x0c'
p217
ssS'atcatalog_tests_testdbsetup'
p218
(dp219
S'index'
p220
(dp221
g31
S'atcatalog_tests_testdbsetup.html'
p222
sg33
S'atcatalog/tests/testdbsetup'
p223
sg35
g13
(g14
g15
NtRp224
(dp225
g18
I1
sg19
I2
sg20
I47
sg21
I2
sg22
I0
sg23
I13
sg24
I2
sbssS'hash'
p226
S'Y\xd4\x89l\xf1p\xac\x89\xe1u\xf0Y\xdaA\x05V'
p227
ssS'atcatalog_data_model'
p228
(dp229
S'index'
p230
(dp231
S'html_filename'
p232
S'atcatalog_data_model.html'
p233
sS'name'
p234
S'atcatalog/data/model'
p235
sS'nums'
p236
g13
(g14
g15
NtRp237
(dp238
g18
I1
sg19
I2
sg20
I32
sg21
I2
sg22
I0
sg23
I32
sg24
I2
sbssS'hash'
p239
S'\x7fM\xe6a\x96\x13\xbb)\xfd\xd3$8\x8b\tM\x81'
p240
ssS'atcatalog_tests_testgendata'
p241
(dp242
S'index'
p243
(dp244
g150
S'atcatalog_tests_testgendata.html'
p245
sg152
S'atcatalog/tests/testgendata'
p246
sg154
g13
(g14
g15
NtRp247
(dp248
g18
I1
sg19
I6
sg20
I27
sg21
I2
sg22
I0
sg23
I0
sg24
I0
sbssS'hash'
p249
S"\xb6\xb9\xeeO\x19L^d\x0f\x7fjEUD'\xd3"
p250
ssS'atcatalog_data_gendata'
p251
(dp252
S'index'
p253
(dp254
g150
S'atcatalog_data_gendata.html'
p255
sg152
S'atcatalog/data/gendata'
p256
sg154
g13
(g14
g15
NtRp257
(dp258
g18
I1
sg19
I2
sg20
I30
sg21
I2
sg22
I0
sg23
I0
sg24
I0
sbssS'hash'
p259
S'\xd5mm\x8bG\x06e\x17\xd5da\xa1\x94\xba\xa8J'
p260
ssS'atcatalog_model_atcmodel'
p261
(dp262
g42
(dp263
S'html_filename'
p264
S'atcatalog_model_atcmodel.html'
p265
sS'name'
p266
S'atcatalog/model/atcmodel'
p267
sS'nums'
p268
g13
(g14
g15
NtRp269
(dp270
g18
I1
sg19
I4
sg20
I73
sg21
I2
sg22
I1
sg23
I10
sg24
I1
sbssg48
S'\xa4\xf7\x11\x82:\xc8\x87\xf3\xa3\x02\xf8\x92\xcfQ\xa6\x84'
p271
ssS'atcatalog_tests___init__'
p272
(dp273
g6
(dp274
g178
S'atcatalog_tests___init__.html'
p275
sg180
S'atcatalog/tests/__init__'
p276
sg182
g13
(g14
g15
NtRp277
(dp278
g18
I1
sg19
I0
sg20
I0
sg21
I0
sg22
I0
sg23
I0
sg24
I0
sbssg25
S'?l 2\x1b\xae\xe1\xf1\xe2\x1a\xb6]i\x04\xe6\xb2'
p279
ssS'atcatalog_tests_testatcmodel'
p280
(dp281
S'index'
p282
(dp283
S'html_filename'
p284
S'atcatalog_tests_testatcmodel.html'
p285
sS'name'
p286
S'atcatalog/tests/testatcmodel'
p287
sS'nums'
p288
g13
(g14
g15
NtRp289
(dp290
g18
I1
sg19
I0
sg20
I64
sg21
I2
sg22
I0
sg23
I0
sg24
I0
sbssS'hash'
p291
S':\xe4{\x80\x08\x86h2\xf5\xe82\x81\x1d\xa9\xc7a'
p292
ssS'atcatalog_data_origmodel'
p293
(dp294
S'index'
p295
(dp296
g99
S'atcatalog_data_origmodel.html'
p297
sg101
S'atcatalog/data/origmodel'
p298
sg103
g13
(g14
g15
NtRp299
(dp300
g18
I1
sg19
I0
sg20
I38
sg21
I0
sg22
I0
sg23
I38
sg24
I0
sbssS'hash'
p301
S'\x06\xe9\xe2b\xa1\xcc\x9c\xb6?\xa9#65\xc5\x19\xd3'
p302
ssS'atcatalog_data_csvinput'
p303
(dp304
S'index'
p305
(dp306
g31
S'atcatalog_data_csvinput.html'
p307
sg33
S'atcatalog/data/csvinput'
p308
sg35
g13
(g14
g15
NtRp309
(dp310
g18
I1
sg19
I2
sg20
I23
sg21
I2
sg22
I0
sg23
I23
sg24
I2
sbssS'hash'
p311
S'`Z\xd7\xa7\xe7\x7f\x8a\xc4\xb5\x17\x7f\xaej\xa1@;'
p312
ssS'atcatalog_tests_testsentence'
p313
(dp314
S'index'
p315
(dp316
g53
S'atcatalog_tests_testsentence.html'
p317
sg55
S'atcatalog/tests/testsentence'
p318
sg57
g13
(g14
g15
NtRp319
(dp320
g18
I1
sg19
I0
sg20
I42
sg21
I2
sg22
I0
sg23
I0
sg24
I0
sbssS'hash'
p321
S'c=B\x93\xdf\xde\xbe\x89!\xff\x9eK\xf2klT'
p322
ssS'atcatalog_tests_testlanguage'
p323
(dp324
S'index'
p325
(dp326
g8
S'atcatalog_tests_testlanguage.html'
p327
sg10
S'atcatalog/tests/testlanguage'
p328
sg12
g13
(g14
g15
NtRp329
(dp330
g18
I1
sg19
I2
sg20
I25
sg21
I2
sg22
I0
sg23
I0
sg24
I0
sbssS'hash'
p331
S')\x83\xc4\xd0\x93+\xbfF\x974e\xb6%\x8a\xe1\xca'
p332
ssS'atcatalog_tests_testormhelper'
p333
(dp334
S'index'
p335
(dp336
g209
S'atcatalog_tests_testormhelper.html'
p337
sg211
S'atcatalog/tests/testormhelper'
p338
sg213
g13
(g14
g15
NtRp339
(dp340
g18
I1
sg19
I0
sg20
I67
sg21
I2
sg22
I0
sg23
I0
sg24
I0
sbssS'hash'
p341
S'1A\xa5so\xfcEq\xe3]\xb7+\x1b\x7f\xb7\xc9'
p342
sssS'version'
p343
S'3.7.1'
p344
sS'settings'
p345
S'm^\xd1\rt\xba\x05\xc7,Bm\x10@\xf0\\\x9a'
p346
sS'format'
p347
I1
s.