(dp1
S'files'
p2
(dp3
S'atcatalog_views_language'
p4
(dp5
S'index'
p6
(dp7
S'html_filename'
p8
S'atcatalog_views_language.html'
p9
sS'name'
p10
S'atcatalog/views/language'
p11
sS'nums'
p12
ccopy_reg
_reconstructor
p13
(ccoverage.results
Numbers
p14
c__builtin__
object
p15
NtRp16
(dp17
S'n_files'
p18
I1
sS'n_branches'
p19
I0
sS'n_statements'
p20
I6
sS'n_excluded'
p21
I0
sS'n_partial_branches'
p22
I0
sS'n_missing'
p23
I0
sS'n_missing_branches'
p24
I0
sbssS'hash'
p25
S'\xb6\xad\x81^\x19\xadh\x9fzY\x8e\xa60\x82\x8b\xfb'
p26
ssS'atcatalog_data_dbcrud'
p27
(dp28
S'index'
p29
(dp30
S'html_filename'
p31
S'atcatalog_data_dbcrud.html'
p32
sS'name'
p33
S'atcatalog/data/dbcrud'
p34
sS'nums'
p35
g13
(g14
g15
NtRp36
(dp37
g18
I1
sg19
I18
sg20
I20
sg21
I5
sg22
I0
sg23
I20
sg24
I18
sbssS'hash'
p38
S'\xf95\x1e\xb7Q_\xd7qy\x97\xf7\xc9P\xb0B;'
p39
ssS'atcatalog_model_atcaccess'
p40
(dp41
S'index'
p42
(dp43
g31
S'atcatalog_model_atcaccess.html'
p44
sg33
S'atcatalog/model/atcaccess'
p45
sg35
g13
(g14
g15
NtRp46
(dp47
g18
I1
sg19
I10
sg20
I33
sg21
I0
sg22
I0
sg23
I33
sg24
I10
sbssS'hash'
p48
S'\xb7\x00w\x8fD\xe0\x8dE\x87\xe42\x9f\t\xe2\xcd\xf9'
p49
ssS'atcatalog_views_sentence'
p50
(dp51
g6
(dp52
S'html_filename'
p53
S'atcatalog_views_sentence.html'
p54
sS'name'
p55
S'atcatalog/views/sentence'
p56
sS'nums'
p57
g13
(g14
g15
NtRp58
(dp59
g18
I1
sg19
I0
sg20
I12
sg21
I0
sg22
I0
sg23
I0
sg24
I0
sbssg25
S'<\x1dH\xe1\xefq\xec_\xb0%\xc9?SY\x06U'
p60
ssS'atcatalog_data_model_database'
p61
(dp62
S'index'
p63
(dp64
S'html_filename'
p65
S'atcatalog_data_model_database.html'
p66
sS'name'
p67
S'atcatalog/data/model_database'
p68
sS'nums'
p69
g13
(g14
g15
NtRp70
(dp71
g18
I1
sg19
I0
sg20
I38
sg21
I0
sg22
I0
sg23
I38
sg24
I0
sbssS'hash'
p72
S'\x06\xe9\xe2b\xa1\xcc\x9c\xb6?\xa9#65\xc5\x19\xd3'
p73
ssS'atcatalog_data_const'
p74
(dp75
S'index'
p76
(dp77
S'html_filename'
p78
S'atcatalog_data_const.html'
p79
sS'name'
p80
S'atcatalog/data/const'
p81
sS'nums'
p82
g13
(g14
g15
NtRp83
(dp84
g18
I1
sg19
I0
sg20
I21
sg21
I0
sg22
I0
sg23
I0
sg24
I0
sbssS'hash'
p85
S'<\xa4\x99x:<_\x00\x19\xd4c\\\x7f\x11\x00Y'
p86
ssS'atcatalog_tests_testmodel'
p87
(dp88
S'index'
p89
(dp90
S'html_filename'
p91
S'atcatalog_tests_testmodel.html'
p92
sS'name'
p93
S'atcatalog/tests/testmodel'
p94
sS'nums'
p95
g13
(g14
g15
NtRp96
(dp97
g18
I1
sg19
I0
sg20
I16
sg21
I2
sg22
I0
sg23
I6
sg24
I0
sbssS'hash'
p98
S'R\x9dK \xed\xa8\x1eSg*\x9d\x08\xab\xc4\xf1l'
p99
ssS'atcatalog_tests_testlanguages'
p100
(dp101
g6
(dp102
S'html_filename'
p103
S'atcatalog_tests_testlanguages.html'
p104
sS'name'
p105
S'atcatalog/tests/testlanguages'
p106
sS'nums'
p107
g13
(g14
g15
NtRp108
(dp109
g18
I1
sg19
I2
sg20
I24
sg21
I2
sg22
I0
sg23
I0
sg24
I0
sbssg25
S"j6\xd2')\x8c\xf3\xe7\x85H\x06\xae^\x8e<a"
p110
ssS'atcatalog_tests_testlanguage'
p111
(dp112
S'index'
p113
(dp114
g103
S'atcatalog_tests_testlanguage.html'
p115
sg105
S'atcatalog/tests/testlanguage'
p116
sg107
g13
(g14
g15
NtRp117
(dp118
g18
I1
sg19
I2
sg20
I25
sg21
I2
sg22
I0
sg23
I0
sg24
I0
sbssS'hash'
p119
S')\x83\xc4\xd0\x93+\xbfF\x974e\xb6%\x8a\xe1\xca'
p120
ssS'atcatalog_views_languages'
p121
(dp122
g6
(dp123
S'html_filename'
p124
S'atcatalog_views_languages.html'
p125
sS'name'
p126
S'atcatalog/views/languages'
p127
sS'nums'
p128
g13
(g14
g15
NtRp129
(dp130
g18
I1
sg19
I0
sg20
I6
sg21
I0
sg22
I0
sg23
I0
sg24
I0
sbssg25
S'#\xaf\xed\xbc\xa2p\x04\xc9\xff\x0c}\xf7\xae\xa5\x96o'
p131
ssS'atcatalog_data___init__'
p132
(dp133
g6
(dp134
S'html_filename'
p135
S'atcatalog_data___init__.html'
p136
sS'name'
p137
S'atcatalog/data/__init__'
p138
sS'nums'
p139
g13
(g14
g15
NtRp140
(dp141
g18
I1
sg19
I0
sg20
I1
sg21
I0
sg22
I0
sg23
I0
sg24
I0
sbssg25
S'\xb9Z\x86\xde\x18\xa0\xc6\x95,I\xbeE\xefA\x16\xe9'
p142
ssS'atcatalog_data_database'
p143
(dp144
g89
(dp145
S'html_filename'
p146
S'atcatalog_data_database.html'
p147
sS'name'
p148
S'atcatalog/data/database'
p149
sS'nums'
p150
g13
(g14
g15
NtRp151
(dp152
g18
I1
sg19
I0
sg20
I0
sg21
I0
sg22
I0
sg23
I0
sg24
I0
sbssg98
S'\xe5P\x11)^\xf4>1D.\x0e\x0b\xa1\xf8[+'
p153
ssS'atcatalog_data_dbfill'
p154
(dp155
S'index'
p156
(dp157
g78
S'atcatalog_data_dbfill.html'
p158
sg80
S'atcatalog/data/dbfill'
p159
sg82
g13
(g14
g15
NtRp160
(dp161
g18
I1
sg19
I0
sg20
I4
sg21
I7
sg22
I0
sg23
I0
sg24
I0
sbssS'hash'
p162
S'<]9y\xe8d\xbf!\xb5\x80,\x06:4\xacb'
p163
ssS'atcatalog_data_dbsetup'
p164
(dp165
g156
(dp166
g31
S'atcatalog_data_dbsetup.html'
p167
sg33
S'atcatalog/data/dbsetup'
p168
sg35
g13
(g14
g15
NtRp169
(dp170
g18
I1
sg19
I2
sg20
I52
sg21
I2
sg22
I0
sg23
I18
sg24
I0
sbssg162
S"\xd6f\x83'\xa9\xf3Q{\xbe\x9c{\xfd?\xe7+>"
p171
ssS'atcatalog_data_create_database'
p172
(dp173
g6
(dp174
S'html_filename'
p175
S'atcatalog_data_create_database.html'
p176
sS'name'
p177
S'atcatalog/data/create_database'
p178
sS'nums'
p179
g13
(g14
g15
NtRp180
(dp181
g18
I1
sg19
I0
sg20
I38
sg21
I0
sg22
I0
sg23
I38
sg24
I0
sbssg25
S'<T\xa3M\xdf\x8e\xf8$]\x94$\xf1\x94\x1c\x15\xdb'
p182
ssS'atcatalog_data_fake'
p183
(dp184
g6
(dp185
S'html_filename'
p186
S'atcatalog_data_fake.html'
p187
sS'name'
p188
S'atcatalog/data/fake'
p189
sS'nums'
p190
g13
(g14
g15
NtRp191
(dp192
g18
I1
sg19
I0
sg20
I9
sg21
I0
sg22
I0
sg23
I0
sg24
I0
sbssg25
S"\xda'S\xfd\xfe\x86\x89N\xa1\xac\n\xd7T\xe8h\xb1"
p193
ssS'atcatalog_model_atcmodel'
p194
(dp195
g42
(dp196
S'html_filename'
p197
S'atcatalog_model_atcmodel.html'
p198
sS'name'
p199
S'atcatalog/model/atcmodel'
p200
sS'nums'
p201
g13
(g14
g15
NtRp202
(dp203
g18
I1
sg19
I18
sg20
I118
sg21
I2
sg22
I4
sg23
I49
sg24
I12
sbssg48
S'\xbeI\xf3P\no\xb4\xe9\xb74\xd6\x81\xa2dm\x14'
p204
ssS'atcatalog_tests_testdbsetup'
p205
(dp206
S'index'
p207
(dp208
g31
S'atcatalog_tests_testdbsetup.html'
p209
sg33
S'atcatalog/tests/testdbsetup'
p210
sg35
g13
(g14
g15
NtRp211
(dp212
g18
I1
sg19
I2
sg20
I47
sg21
I2
sg22
I0
sg23
I13
sg24
I2
sbssS'hash'
p213
S'Y\xd4\x89l\xf1p\xac\x89\xe1u\xf0Y\xdaA\x05V'
p214
ssS'atcatalog_data_model'
p215
(dp216
S'index'
p217
(dp218
S'html_filename'
p219
S'atcatalog_data_model.html'
p220
sS'name'
p221
S'atcatalog/data/model'
p222
sS'nums'
p223
g13
(g14
g15
NtRp224
(dp225
g18
I1
sg19
I2
sg20
I32
sg21
I2
sg22
I0
sg23
I32
sg24
I2
sbssS'hash'
p226
S'\x7fM\xe6a\x96\x13\xbb)\xfd\xd3$8\x8b\tM\x81'
p227
ssS'atcatalog_tests___init__'
p228
(dp229
g6
(dp230
g175
S'atcatalog_tests___init__.html'
p231
sg177
S'atcatalog/tests/__init__'
p232
sg179
g13
(g14
g15
NtRp233
(dp234
g18
I1
sg19
I0
sg20
I0
sg21
I0
sg22
I0
sg23
I0
sg24
I0
sbssg25
S'?l 2\x1b\xae\xe1\xf1\xe2\x1a\xb6]i\x04\xe6\xb2'
p235
ssS'atcatalog_data_gendata'
p236
(dp237
S'index'
p238
(dp239
S'html_filename'
p240
S'atcatalog_data_gendata.html'
p241
sS'name'
p242
S'atcatalog/data/gendata'
p243
sS'nums'
p244
g13
(g14
g15
NtRp245
(dp246
g18
I1
sg19
I14
sg20
I90
sg21
I2
sg22
I0
sg23
I59
sg24
I14
sbssS'hash'
p247
S'\x8bT&*\x03\xca1HH\xd9\x1b\xef\xc3\x94\xa3)'
p248
ssS'atcatalog_views___init__'
p249
(dp250
g6
(dp251
g175
S'atcatalog_views___init__.html'
p252
sg177
S'atcatalog/views/__init__'
p253
sg179
g13
(g14
g15
NtRp254
(dp255
g18
I1
sg19
I0
sg20
I0
sg21
I0
sg22
I0
sg23
I0
sg24
I0
sbssg25
S'?l 2\x1b\xae\xe1\xf1\xe2\x1a\xb6]i\x04\xe6\xb2'
p256
ssS'atcatalog___init__'
p257
(dp258
g6
(dp259
g31
S'atcatalog___init__.html'
p260
sg33
S'atcatalog/__init__'
p261
sg35
g13
(g14
g15
NtRp262
(dp263
g18
I1
sg19
I0
sg20
I6
sg21
I0
sg22
I0
sg23
I0
sg24
I0
sbssg25
S'\xe3\xaaO\xe9\x9e\xfdI\xa6]\x7fJ\xf6o\x1e\xb9\x8a'
p264
ssS'atcatalog_tests_testatcmodel'
p265
(dp266
S'index'
p267
(dp268
g197
S'atcatalog_tests_testatcmodel.html'
p269
sg199
S'atcatalog/tests/testatcmodel'
p270
sg201
g13
(g14
g15
NtRp271
(dp272
g18
I1
sg19
I0
sg20
I49
sg21
I2
sg22
I0
sg23
I0
sg24
I0
sbssS'hash'
p273
S'\xadB\xe7\x0f\xe9\xd7\x97ea?u\x1b\xf7^\x7f\x03'
p274
ssS'atcatalog_data_origmodel'
p275
(dp276
S'index'
p277
(dp278
g91
S'atcatalog_data_origmodel.html'
p279
sg93
S'atcatalog/data/origmodel'
p280
sg95
g13
(g14
g15
NtRp281
(dp282
g18
I1
sg19
I0
sg20
I38
sg21
I0
sg22
I0
sg23
I38
sg24
I0
sbssS'hash'
p283
S'\x06\xe9\xe2b\xa1\xcc\x9c\xb6?\xa9#65\xc5\x19\xd3'
p284
ssS'atcatalog_data_csvinput'
p285
(dp286
S'index'
p287
(dp288
g31
S'atcatalog_data_csvinput.html'
p289
sg33
S'atcatalog/data/csvinput'
p290
sg35
g13
(g14
g15
NtRp291
(dp292
g18
I1
sg19
I2
sg20
I23
sg21
I2
sg22
I0
sg23
I23
sg24
I2
sbssS'hash'
p293
S'`Z\xd7\xa7\xe7\x7f\x8a\xc4\xb5\x17\x7f\xaej\xa1@;'
p294
ssS'atcatalog_tests_testsentence'
p295
(dp296
S'index'
p297
(dp298
S'html_filename'
p299
S'atcatalog_tests_testsentence.html'
p300
sS'name'
p301
S'atcatalog/tests/testsentence'
p302
sS'nums'
p303
g13
(g14
g15
NtRp304
(dp305
g18
I1
sg19
I0
sg20
I42
sg21
I2
sg22
I0
sg23
I0
sg24
I0
sbssS'hash'
p306
S'c=B\x93\xdf\xde\xbe\x89!\xff\x9eK\xf2klT'
p307
ssS'atcatalog_model___init__'
p308
(dp309
g42
(dp310
g31
S'atcatalog_model___init__.html'
p311
sg33
S'atcatalog/model/__init__'
p312
sg35
g13
(g14
g15
NtRp313
(dp314
g18
I1
sg19
I0
sg20
I0
sg21
I0
sg22
I0
sg23
I0
sg24
I0
sbssg48
S'\x19g\xdfM\x1a\x019\xaf\x1baIeR\xe5u\xa7'
p315
sssS'version'
p316
S'3.7.1'
p317
sS'settings'
p318
S'm^\xd1\rt\xba\x05\xc7,Bm\x10@\xf0\\\x9a'
p319
sS'format'
p320
I1
s.