(dp1
S'files'
p2
(dp3
S'atcatalog_views_language'
p4
(dp5
S'index'
p6
(dp7
S'html_filename'
p8
S'atcatalog_views_language.html'
p9
sS'name'
p10
S'atcatalog/views/language'
p11
sS'nums'
p12
ccopy_reg
_reconstructor
p13
(ccoverage.results
Numbers
p14
c__builtin__
object
p15
NtRp16
(dp17
S'n_files'
p18
I1
sS'n_branches'
p19
I0
sS'n_statements'
p20
I6
sS'n_excluded'
p21
I0
sS'n_partial_branches'
p22
I0
sS'n_missing'
p23
I0
sS'n_missing_branches'
p24
I0
sbssS'hash'
p25
S'\xb6\xad\x81^\x19\xadh\x9fzY\x8e\xa60\x82\x8b\xfb'
p26
ssS'atcatalog_data_dbcrud'
p27
(dp28
S'index'
p29
(dp30
S'html_filename'
p31
S'atcatalog_data_dbcrud.html'
p32
sS'name'
p33
S'atcatalog/data/dbcrud'
p34
sS'nums'
p35
g13
(g14
g15
NtRp36
(dp37
g18
I1
sg19
I18
sg20
I20
sg21
I5
sg22
I0
sg23
I20
sg24
I18
sbssS'hash'
p38
S'\xf95\x1e\xb7Q_\xd7qy\x97\xf7\xc9P\xb0B;'
p39
ssS'atcatalog_model_atcaccess'
p40
(dp41
S'index'
p42
(dp43
g31
S'atcatalog_model_atcaccess.html'
p44
sg33
S'atcatalog/model/atcaccess'
p45
sg35
g13
(g14
g15
NtRp46
(dp47
g18
I1
sg19
I10
sg20
I33
sg21
I0
sg22
I0
sg23
I33
sg24
I10
sbssS'hash'
p48
S'\xb7\x00w\x8fD\xe0\x8dE\x87\xe42\x9f\t\xe2\xcd\xf9'
p49
ssS'atcatalog_views_sentence'
p50
(dp51
g6
(dp52
S'html_filename'
p53
S'atcatalog_views_sentence.html'
p54
sS'name'
p55
S'atcatalog/views/sentence'
p56
sS'nums'
p57
g13
(g14
g15
NtRp58
(dp59
g18
I1
sg19
I0
sg20
I12
sg21
I0
sg22
I0
sg23
I0
sg24
I0
sbssg25
S'<\x1dH\xe1\xefq\xec_\xb0%\xc9?SY\x06U'
p60
ssS'atcatalog_data_model_database'
p61
(dp62
S'index'
p63
(dp64
S'html_filename'
p65
S'atcatalog_data_model_database.html'
p66
sS'name'
p67
S'atcatalog/data/model_database'
p68
sS'nums'
p69
g13
(g14
g15
NtRp70
(dp71
g18
I1
sg19
I0
sg20
I38
sg21
I0
sg22
I0
sg23
I38
sg24
I0
sbssS'hash'
p72
S'\x06\xe9\xe2b\xa1\xcc\x9c\xb6?\xa9#65\xc5\x19\xd3'
p73
ssS'atcatalog_data_const'
p74
(dp75
S'index'
p76
(dp77
S'html_filename'
p78
S'atcatalog_data_const.html'
p79
sS'name'
p80
S'atcatalog/data/const'
p81
sS'nums'
p82
g13
(g14
g15
NtRp83
(dp84
g18
I1
sg19
I0
sg20
I20
sg21
I0
sg22
I0
sg23
I0
sg24
I0
sbssS'hash'
p85
S'd\x00\xbaJ\xc0fC\\v\x12\xa1\x94\x11BT\x8e'
p86
ssS'atcatalog_tests_testmodel'
p87
(dp88
S'index'
p89
(dp90
S'html_filename'
p91
S'atcatalog_tests_testmodel.html'
p92
sS'name'
p93
S'atcatalog/tests/testmodel'
p94
sS'nums'
p95
g13
(g14
g15
NtRp96
(dp97
g18
I1
sg19
I0
sg20
I16
sg21
I2
sg22
I0
sg23
I6
sg24
I0
sbssS'hash'
p98
S'R\x9dK \xed\xa8\x1eSg*\x9d\x08\xab\xc4\xf1l'
p99
ssS'atcatalog_tests_testlanguages'
p100
(dp101
g6
(dp102
g8
S'atcatalog_tests_testlanguages.html'
p103
sg10
S'atcatalog/tests/testlanguages'
p104
sg12
g13
(g14
g15
NtRp105
(dp106
g18
I1
sg19
I2
sg20
I24
sg21
I2
sg22
I0
sg23
I0
sg24
I0
sbssg25
S"j6\xd2')\x8c\xf3\xe7\x85H\x06\xae^\x8e<a"
p107
ssS'atcatalog_tests_testlanguage'
p108
(dp109
S'index'
p110
(dp111
g8
S'atcatalog_tests_testlanguage.html'
p112
sg10
S'atcatalog/tests/testlanguage'
p113
sg12
g13
(g14
g15
NtRp114
(dp115
g18
I1
sg19
I2
sg20
I25
sg21
I2
sg22
I0
sg23
I0
sg24
I0
sbssS'hash'
p116
S')\x83\xc4\xd0\x93+\xbfF\x974e\xb6%\x8a\xe1\xca'
p117
ssS'atcatalog_views_languages'
p118
(dp119
g6
(dp120
g8
S'atcatalog_views_languages.html'
p121
sg10
S'atcatalog/views/languages'
p122
sg12
g13
(g14
g15
NtRp123
(dp124
g18
I1
sg19
I0
sg20
I6
sg21
I0
sg22
I0
sg23
I0
sg24
I0
sbssg25
S'#\xaf\xed\xbc\xa2p\x04\xc9\xff\x0c}\xf7\xae\xa5\x96o'
p125
ssS'atcatalog_data___init__'
p126
(dp127
g6
(dp128
S'html_filename'
p129
S'atcatalog_data___init__.html'
p130
sS'name'
p131
S'atcatalog/data/__init__'
p132
sS'nums'
p133
g13
(g14
g15
NtRp134
(dp135
g18
I1
sg19
I0
sg20
I1
sg21
I0
sg22
I0
sg23
I0
sg24
I0
sbssg25
S'\xb9Z\x86\xde\x18\xa0\xc6\x95,I\xbeE\xefA\x16\xe9'
p136
ssS'atcatalog_data_database'
p137
(dp138
g89
(dp139
S'html_filename'
p140
S'atcatalog_data_database.html'
p141
sS'name'
p142
S'atcatalog/data/database'
p143
sS'nums'
p144
g13
(g14
g15
NtRp145
(dp146
g18
I1
sg19
I0
sg20
I0
sg21
I0
sg22
I0
sg23
I0
sg24
I0
sbssg98
S'\xe5P\x11)^\xf4>1D.\x0e\x0b\xa1\xf8[+'
p147
ssS'atcatalog_data_dbfill'
p148
(dp149
S'index'
p150
(dp151
S'html_filename'
p152
S'atcatalog_data_dbfill.html'
p153
sS'name'
p154
S'atcatalog/data/dbfill'
p155
sS'nums'
p156
g13
(g14
g15
NtRp157
(dp158
g18
I1
sg19
I6
sg20
I23
sg21
I2
sg22
I0
sg23
I13
sg24
I6
sbssS'hash'
p159
S'Fb>\xdf\x012\xe8\x1d\xc5\x1c\xf0\xcf\xc0U\xfd\x1c'
p160
ssS'atcatalog_data_dbsetup'
p161
(dp162
g150
(dp163
g31
S'atcatalog_data_dbsetup.html'
p164
sg33
S'atcatalog/data/dbsetup'
p165
sg35
g13
(g14
g15
NtRp166
(dp167
g18
I1
sg19
I2
sg20
I52
sg21
I2
sg22
I0
sg23
I18
sg24
I0
sbssg159
S"\xd6f\x83'\xa9\xf3Q{\xbe\x9c{\xfd?\xe7+>"
p168
ssS'atcatalog_data_create_database'
p169
(dp170
g6
(dp171
S'html_filename'
p172
S'atcatalog_data_create_database.html'
p173
sS'name'
p174
S'atcatalog/data/create_database'
p175
sS'nums'
p176
g13
(g14
g15
NtRp177
(dp178
g18
I1
sg19
I0
sg20
I38
sg21
I0
sg22
I0
sg23
I38
sg24
I0
sbssg25
S'<T\xa3M\xdf\x8e\xf8$]\x94$\xf1\x94\x1c\x15\xdb'
p179
ssS'atcatalog_data_fake'
p180
(dp181
g6
(dp182
S'html_filename'
p183
S'atcatalog_data_fake.html'
p184
sS'name'
p185
S'atcatalog/data/fake'
p186
sS'nums'
p187
g13
(g14
g15
NtRp188
(dp189
g18
I1
sg19
I0
sg20
I9
sg21
I0
sg22
I0
sg23
I0
sg24
I0
sbssg25
S"\xda'S\xfd\xfe\x86\x89N\xa1\xac\n\xd7T\xe8h\xb1"
p190
ssS'atcatalog_model_atcmodel'
p191
(dp192
g42
(dp193
S'html_filename'
p194
S'atcatalog_model_atcmodel.html'
p195
sS'name'
p196
S'atcatalog/model/atcmodel'
p197
sS'nums'
p198
g13
(g14
g15
NtRp199
(dp200
g18
I1
sg19
I4
sg20
I73
sg21
I2
sg22
I1
sg23
I12
sg24
I1
sbssg48
S'\x89;,RFP\xea\x82\xcb/\xa8\xdf)\xd0)\xd4'
p201
ssS'atcatalog_model_ormhelper'
p202
(dp203
S'index'
p204
(dp205
S'html_filename'
p206
S'atcatalog_model_ormhelper.html'
p207
sS'name'
p208
S'atcatalog/model/ormhelper'
p209
sS'nums'
p210
g13
(g14
g15
NtRp211
(dp212
g18
I1
sg19
I6
sg20
I29
sg21
I0
sg22
I1
sg23
I4
sg24
I1
sbssS'hash'
p213
S'v\x081\x85\x1cue\x0b,\xb9\xe3\x92\x81@rK'
p214
ssS'atcatalog_tests_testdbsetup'
p215
(dp216
S'index'
p217
(dp218
g31
S'atcatalog_tests_testdbsetup.html'
p219
sg33
S'atcatalog/tests/testdbsetup'
p220
sg35
g13
(g14
g15
NtRp221
(dp222
g18
I1
sg19
I2
sg20
I47
sg21
I2
sg22
I0
sg23
I13
sg24
I2
sbssS'hash'
p223
S'Y\xd4\x89l\xf1p\xac\x89\xe1u\xf0Y\xdaA\x05V'
p224
ssS'atcatalog_data_model'
p225
(dp226
S'index'
p227
(dp228
S'html_filename'
p229
S'atcatalog_data_model.html'
p230
sS'name'
p231
S'atcatalog/data/model'
p232
sS'nums'
p233
g13
(g14
g15
NtRp234
(dp235
g18
I1
sg19
I2
sg20
I32
sg21
I2
sg22
I0
sg23
I32
sg24
I2
sbssS'hash'
p236
S'\x7fM\xe6a\x96\x13\xbb)\xfd\xd3$8\x8b\tM\x81'
p237
ssS'atcatalog_tests___init__'
p238
(dp239
g6
(dp240
g172
S'atcatalog_tests___init__.html'
p241
sg174
S'atcatalog/tests/__init__'
p242
sg176
g13
(g14
g15
NtRp243
(dp244
g18
I1
sg19
I0
sg20
I0
sg21
I0
sg22
I0
sg23
I0
sg24
I0
sbssg25
S'?l 2\x1b\xae\xe1\xf1\xe2\x1a\xb6]i\x04\xe6\xb2'
p245
ssS'atcatalog_tests_testgendata'
p246
(dp247
S'index'
p248
(dp249
g152
S'atcatalog_tests_testgendata.html'
p250
sg154
S'atcatalog/tests/testgendata'
p251
sg156
g13
(g14
g15
NtRp252
(dp253
g18
I1
sg19
I6
sg20
I27
sg21
I2
sg22
I0
sg23
I0
sg24
I0
sbssS'hash'
p254
S"\xb6\xb9\xeeO\x19L^d\x0f\x7fjEUD'\xd3"
p255
ssS'atcatalog_data_gendata'
p256
(dp257
S'index'
p258
(dp259
g152
S'atcatalog_data_gendata.html'
p260
sg154
S'atcatalog/data/gendata'
p261
sg156
g13
(g14
g15
NtRp262
(dp263
g18
I1
sg19
I2
sg20
I30
sg21
I2
sg22
I0
sg23
I0
sg24
I0
sbssS'hash'
p264
S'\xd5mm\x8bG\x06e\x17\xd5da\xa1\x94\xba\xa8J'
p265
ssS'atcatalog_views___init__'
p266
(dp267
g6
(dp268
g172
S'atcatalog_views___init__.html'
p269
sg174
S'atcatalog/views/__init__'
p270
sg176
g13
(g14
g15
NtRp271
(dp272
g18
I1
sg19
I0
sg20
I0
sg21
I0
sg22
I0
sg23
I0
sg24
I0
sbssg25
S'?l 2\x1b\xae\xe1\xf1\xe2\x1a\xb6]i\x04\xe6\xb2'
p273
ssS'atcatalog___init__'
p274
(dp275
g6
(dp276
g31
S'atcatalog___init__.html'
p277
sg33
S'atcatalog/__init__'
p278
sg35
g13
(g14
g15
NtRp279
(dp280
g18
I1
sg19
I0
sg20
I6
sg21
I0
sg22
I0
sg23
I0
sg24
I0
sbssg25
S'\xe3\xaaO\xe9\x9e\xfdI\xa6]\x7fJ\xf6o\x1e\xb9\x8a'
p281
ssS'atcatalog_tests_testatcmodel'
p282
(dp283
S'index'
p284
(dp285
S'html_filename'
p286
S'atcatalog_tests_testatcmodel.html'
p287
sS'name'
p288
S'atcatalog/tests/testatcmodel'
p289
sS'nums'
p290
g13
(g14
g15
NtRp291
(dp292
g18
I1
sg19
I0
sg20
I75
sg21
I2
sg22
I0
sg23
I0
sg24
I0
sbssS'hash'
p293
S'\x11\x08\xb3\xa9\x9d\x8d\xaeLRW\xddU\x8fHv]'
p294
ssS'atcatalog_data_origmodel'
p295
(dp296
S'index'
p297
(dp298
g91
S'atcatalog_data_origmodel.html'
p299
sg93
S'atcatalog/data/origmodel'
p300
sg95
g13
(g14
g15
NtRp301
(dp302
g18
I1
sg19
I0
sg20
I38
sg21
I0
sg22
I0
sg23
I38
sg24
I0
sbssS'hash'
p303
S'\x06\xe9\xe2b\xa1\xcc\x9c\xb6?\xa9#65\xc5\x19\xd3'
p304
ssS'atcatalog_data_csvinput'
p305
(dp306
S'index'
p307
(dp308
g31
S'atcatalog_data_csvinput.html'
p309
sg33
S'atcatalog/data/csvinput'
p310
sg35
g13
(g14
g15
NtRp311
(dp312
g18
I1
sg19
I2
sg20
I23
sg21
I2
sg22
I0
sg23
I23
sg24
I2
sbssS'hash'
p313
S'`Z\xd7\xa7\xe7\x7f\x8a\xc4\xb5\x17\x7f\xaej\xa1@;'
p314
ssS'atcatalog_tests_testsentence'
p315
(dp316
S'index'
p317
(dp318
g53
S'atcatalog_tests_testsentence.html'
p319
sg55
S'atcatalog/tests/testsentence'
p320
sg57
g13
(g14
g15
NtRp321
(dp322
g18
I1
sg19
I0
sg20
I42
sg21
I2
sg22
I0
sg23
I0
sg24
I0
sbssS'hash'
p323
S'c=B\x93\xdf\xde\xbe\x89!\xff\x9eK\xf2klT'
p324
ssS'atcatalog_model___init__'
p325
(dp326
g42
(dp327
g31
S'atcatalog_model___init__.html'
p328
sg33
S'atcatalog/model/__init__'
p329
sg35
g13
(g14
g15
NtRp330
(dp331
g18
I1
sg19
I0
sg20
I0
sg21
I0
sg22
I0
sg23
I0
sg24
I0
sbssg48
S'\x19g\xdfM\x1a\x019\xaf\x1baIeR\xe5u\xa7'
p332
ssS'atcatalog_tests_testormhelper'
p333
(dp334
S'index'
p335
(dp336
S'html_filename'
p337
S'atcatalog_tests_testormhelper.html'
p338
sS'name'
p339
S'atcatalog/tests/testormhelper'
p340
sS'nums'
p341
g13
(g14
g15
NtRp342
(dp343
g18
I1
sg19
I2
sg20
I33
sg21
I2
sg22
I0
sg23
I1
sg24
I0
sbssS'hash'
p344
S"g@2j\xbc\x1a\xf5\xf3#'\x91\xf3\r\x12\x89\x01"
p345
sssS'version'
p346
S'3.7.1'
p347
sS'settings'
p348
S'm^\xd1\rt\xba\x05\xc7,Bm\x10@\xf0\\\x9a'
p349
sS'format'
p350
I1
s.