(dp1
S'files'
p2
(dp3
S'atcatalog_views_language'
p4
(dp5
S'index'
p6
(dp7
S'html_filename'
p8
S'atcatalog_views_language.html'
p9
sS'name'
p10
S'atcatalog/views/language'
p11
sS'nums'
p12
ccopy_reg
_reconstructor
p13
(ccoverage.results
Numbers
p14
c__builtin__
object
p15
NtRp16
(dp17
S'n_files'
p18
I1
sS'n_branches'
p19
I0
sS'n_statements'
p20
I6
sS'n_excluded'
p21
I0
sS'n_partial_branches'
p22
I0
sS'n_missing'
p23
I0
sS'n_missing_branches'
p24
I0
sbssS'hash'
p25
S'\xb6\xad\x81^\x19\xadh\x9fzY\x8e\xa60\x82\x8b\xfb'
p26
ssS'atcatalog_data_dbcrud'
p27
(dp28
S'index'
p29
(dp30
S'html_filename'
p31
S'atcatalog_data_dbcrud.html'
p32
sS'name'
p33
S'atcatalog/data/dbcrud'
p34
sS'nums'
p35
g13
(g14
g15
NtRp36
(dp37
g18
I1
sg19
I18
sg20
I20
sg21
I5
sg22
I0
sg23
I20
sg24
I18
sbssS'hash'
p38
S'\xf95\x1e\xb7Q_\xd7qy\x97\xf7\xc9P\xb0B;'
p39
ssS'atcatalog_model_atcaccess'
p40
(dp41
S'index'
p42
(dp43
g31
S'atcatalog_model_atcaccess.html'
p44
sg33
S'atcatalog/model/atcaccess'
p45
sg35
g13
(g14
g15
NtRp46
(dp47
g18
I1
sg19
I10
sg20
I33
sg21
I0
sg22
I0
sg23
I33
sg24
I10
sbssS'hash'
p48
S'\xb7\x00w\x8fD\xe0\x8dE\x87\xe42\x9f\t\xe2\xcd\xf9'
p49
ssS'atcatalog_views_sentence'
p50
(dp51
g6
(dp52
S'html_filename'
p53
S'atcatalog_views_sentence.html'
p54
sS'name'
p55
S'atcatalog/views/sentence'
p56
sS'nums'
p57
g13
(g14
g15
NtRp58
(dp59
g18
I1
sg19
I0
sg20
I12
sg21
I0
sg22
I0
sg23
I0
sg24
I0
sbssg25
S'<\x1dH\xe1\xefq\xec_\xb0%\xc9?SY\x06U'
p60
ssS'atcatalog_data_model_database'
p61
(dp62
S'index'
p63
(dp64
S'html_filename'
p65
S'atcatalog_data_model_database.html'
p66
sS'name'
p67
S'atcatalog/data/model_database'
p68
sS'nums'
p69
g13
(g14
g15
NtRp70
(dp71
g18
I1
sg19
I0
sg20
I38
sg21
I0
sg22
I0
sg23
I38
sg24
I0
sbssS'hash'
p72
S'\x06\xe9\xe2b\xa1\xcc\x9c\xb6?\xa9#65\xc5\x19\xd3'
p73
ssS'atcatalog_tests_testdbfill'
p74
(dp75
S'index'
p76
(dp77
S'html_filename'
p78
S'atcatalog_tests_testdbfill.html'
p79
sS'name'
p80
S'atcatalog/tests/testdbfill'
p81
sS'nums'
p82
g13
(g14
g15
NtRp83
(dp84
g18
I1
sg19
I0
sg20
I37
sg21
I0
sg22
I0
sg23
I0
sg24
I0
sbssS'hash'
p85
S'\xe0Wt\x18\x05&f\x1d\xd7\xbb=J[\xa3\xdc\xd8'
p86
ssS'atcatalog_data_const'
p87
(dp88
S'index'
p89
(dp90
g78
S'atcatalog_data_const.html'
p91
sg80
S'atcatalog/data/const'
p92
sg82
g13
(g14
g15
NtRp93
(dp94
g18
I1
sg19
I0
sg20
I24
sg21
I0
sg22
I0
sg23
I0
sg24
I0
sbssS'hash'
p95
S'\xff\xca\xb8}"\'8\x87:\x8b\x11\x11\x9a\x80\xdf\x94'
p96
ssS'atcatalog_tests_testmodel'
p97
(dp98
S'index'
p99
(dp100
S'html_filename'
p101
S'atcatalog_tests_testmodel.html'
p102
sS'name'
p103
S'atcatalog/tests/testmodel'
p104
sS'nums'
p105
g13
(g14
g15
NtRp106
(dp107
g18
I1
sg19
I0
sg20
I16
sg21
I2
sg22
I0
sg23
I6
sg24
I0
sbssS'hash'
p108
S'R\x9dK \xed\xa8\x1eSg*\x9d\x08\xab\xc4\xf1l'
p109
ssS'atcatalog_tests_testlanguages'
p110
(dp111
g6
(dp112
g8
S'atcatalog_tests_testlanguages.html'
p113
sg10
S'atcatalog/tests/testlanguages'
p114
sg12
g13
(g14
g15
NtRp115
(dp116
g18
I1
sg19
I2
sg20
I24
sg21
I2
sg22
I0
sg23
I0
sg24
I0
sbssg25
S"j6\xd2')\x8c\xf3\xe7\x85H\x06\xae^\x8e<a"
p117
ssS'atcatalog_tests_testlanguage'
p118
(dp119
S'index'
p120
(dp121
g8
S'atcatalog_tests_testlanguage.html'
p122
sg10
S'atcatalog/tests/testlanguage'
p123
sg12
g13
(g14
g15
NtRp124
(dp125
g18
I1
sg19
I2
sg20
I25
sg21
I2
sg22
I0
sg23
I0
sg24
I0
sbssS'hash'
p126
S')\x83\xc4\xd0\x93+\xbfF\x974e\xb6%\x8a\xe1\xca'
p127
ssS'atcatalog_views_languages'
p128
(dp129
g6
(dp130
g8
S'atcatalog_views_languages.html'
p131
sg10
S'atcatalog/views/languages'
p132
sg12
g13
(g14
g15
NtRp133
(dp134
g18
I1
sg19
I0
sg20
I6
sg21
I0
sg22
I0
sg23
I0
sg24
I0
sbssg25
S'#\xaf\xed\xbc\xa2p\x04\xc9\xff\x0c}\xf7\xae\xa5\x96o'
p135
ssS'atcatalog_data___init__'
p136
(dp137
g6
(dp138
S'html_filename'
p139
S'atcatalog_data___init__.html'
p140
sS'name'
p141
S'atcatalog/data/__init__'
p142
sS'nums'
p143
g13
(g14
g15
NtRp144
(dp145
g18
I1
sg19
I0
sg20
I1
sg21
I0
sg22
I0
sg23
I0
sg24
I0
sbssg25
S'\xb9Z\x86\xde\x18\xa0\xc6\x95,I\xbeE\xefA\x16\xe9'
p146
ssS'atcatalog_data_database'
p147
(dp148
g99
(dp149
S'html_filename'
p150
S'atcatalog_data_database.html'
p151
sS'name'
p152
S'atcatalog/data/database'
p153
sS'nums'
p154
g13
(g14
g15
NtRp155
(dp156
g18
I1
sg19
I0
sg20
I0
sg21
I0
sg22
I0
sg23
I0
sg24
I0
sbssg108
S'\xe5P\x11)^\xf4>1D.\x0e\x0b\xa1\xf8[+'
p157
ssS'atcatalog_data_dbfill'
p158
(dp159
S'index'
p160
(dp161
g78
S'atcatalog_data_dbfill.html'
p162
sg80
S'atcatalog/data/dbfill'
p163
sg82
g13
(g14
g15
NtRp164
(dp165
g18
I1
sg19
I6
sg20
I25
sg21
I2
sg22
I0
sg23
I0
sg24
I0
sbssS'hash'
p166
S'8U]\xcf\x1c;\x1d\x95m\xf2S\xf2\xb8P\xb8\xfb'
p167
ssS'atcatalog_data_dbsetup'
p168
(dp169
g160
(dp170
g31
S'atcatalog_data_dbsetup.html'
p171
sg33
S'atcatalog/data/dbsetup'
p172
sg35
g13
(g14
g15
NtRp173
(dp174
g18
I1
sg19
I2
sg20
I52
sg21
I2
sg22
I0
sg23
I18
sg24
I0
sbssg166
S"\xd6f\x83'\xa9\xf3Q{\xbe\x9c{\xfd?\xe7+>"
p175
ssS'atcatalog_data_create_database'
p176
(dp177
g6
(dp178
S'html_filename'
p179
S'atcatalog_data_create_database.html'
p180
sS'name'
p181
S'atcatalog/data/create_database'
p182
sS'nums'
p183
g13
(g14
g15
NtRp184
(dp185
g18
I1
sg19
I0
sg20
I38
sg21
I0
sg22
I0
sg23
I38
sg24
I0
sbssg25
S'<T\xa3M\xdf\x8e\xf8$]\x94$\xf1\x94\x1c\x15\xdb'
p186
ssS'atcatalog_data_fake'
p187
(dp188
g6
(dp189
S'html_filename'
p190
S'atcatalog_data_fake.html'
p191
sS'name'
p192
S'atcatalog/data/fake'
p193
sS'nums'
p194
g13
(g14
g15
NtRp195
(dp196
g18
I1
sg19
I0
sg20
I9
sg21
I0
sg22
I0
sg23
I0
sg24
I0
sbssg25
S"\xda'S\xfd\xfe\x86\x89N\xa1\xac\n\xd7T\xe8h\xb1"
p197
ssS'atcatalog_model_atcmodel'
p198
(dp199
g42
(dp200
S'html_filename'
p201
S'atcatalog_model_atcmodel.html'
p202
sS'name'
p203
S'atcatalog/model/atcmodel'
p204
sS'nums'
p205
g13
(g14
g15
NtRp206
(dp207
g18
I1
sg19
I6
sg20
I76
sg21
I2
sg22
I0
sg23
I0
sg24
I0
sbssg48
S'\xae\xfb\xc4\xe1Z\xe1\xb8\xac\x00\xa2\xd43\xdcU\x1b8'
p208
ssS'atcatalog_model_ormhelper'
p209
(dp210
S'index'
p211
(dp212
S'html_filename'
p213
S'atcatalog_model_ormhelper.html'
p214
sS'name'
p215
S'atcatalog/model/ormhelper'
p216
sS'nums'
p217
g13
(g14
g15
NtRp218
(dp219
g18
I1
sg19
I6
sg20
I33
sg21
I0
sg22
I0
sg23
I0
sg24
I0
sbssS'hash'
p220
S'\xdb\xa44\xc9\xa7y\xa5\x8a\x80m\x86\xa9\xcebd\xe2'
p221
ssS'atcatalog_tests_testdbsetup'
p222
(dp223
S'index'
p224
(dp225
g31
S'atcatalog_tests_testdbsetup.html'
p226
sg33
S'atcatalog/tests/testdbsetup'
p227
sg35
g13
(g14
g15
NtRp228
(dp229
g18
I1
sg19
I2
sg20
I47
sg21
I2
sg22
I0
sg23
I13
sg24
I2
sbssS'hash'
p230
S'Y\xd4\x89l\xf1p\xac\x89\xe1u\xf0Y\xdaA\x05V'
p231
ssS'atcatalog_data_model'
p232
(dp233
S'index'
p234
(dp235
S'html_filename'
p236
S'atcatalog_data_model.html'
p237
sS'name'
p238
S'atcatalog/data/model'
p239
sS'nums'
p240
g13
(g14
g15
NtRp241
(dp242
g18
I1
sg19
I2
sg20
I32
sg21
I2
sg22
I0
sg23
I32
sg24
I2
sbssS'hash'
p243
S'\x7fM\xe6a\x96\x13\xbb)\xfd\xd3$8\x8b\tM\x81'
p244
ssS'atcatalog_tests___init__'
p245
(dp246
g6
(dp247
g179
S'atcatalog_tests___init__.html'
p248
sg181
S'atcatalog/tests/__init__'
p249
sg183
g13
(g14
g15
NtRp250
(dp251
g18
I1
sg19
I0
sg20
I0
sg21
I0
sg22
I0
sg23
I0
sg24
I0
sbssg25
S'?l 2\x1b\xae\xe1\xf1\xe2\x1a\xb6]i\x04\xe6\xb2'
p252
ssS'atcatalog_tests_testgendata'
p253
(dp254
S'index'
p255
(dp256
S'html_filename'
p257
S'atcatalog_tests_testgendata.html'
p258
sS'name'
p259
S'atcatalog/tests/testgendata'
p260
sS'nums'
p261
g13
(g14
g15
NtRp262
(dp263
g18
I1
sg19
I6
sg20
I27
sg21
I2
sg22
I0
sg23
I0
sg24
I0
sbssS'hash'
p264
S"\xb6\xb9\xeeO\x19L^d\x0f\x7fjEUD'\xd3"
p265
ssS'atcatalog_data_gendata'
p266
(dp267
S'index'
p268
(dp269
S'html_filename'
p270
S'atcatalog_data_gendata.html'
p271
sS'name'
p272
S'atcatalog/data/gendata'
p273
sS'nums'
p274
g13
(g14
g15
NtRp275
(dp276
g18
I1
sg19
I2
sg20
I30
sg21
I2
sg22
I0
sg23
I0
sg24
I0
sbssS'hash'
p277
S'\x02\xc4\xf4dJ\x16@\xca\x94\xf5\xa0Ug\xfcP\xac'
p278
ssS'atcatalog_views___init__'
p279
(dp280
g6
(dp281
g179
S'atcatalog_views___init__.html'
p282
sg181
S'atcatalog/views/__init__'
p283
sg183
g13
(g14
g15
NtRp284
(dp285
g18
I1
sg19
I0
sg20
I0
sg21
I0
sg22
I0
sg23
I0
sg24
I0
sbssg25
S'?l 2\x1b\xae\xe1\xf1\xe2\x1a\xb6]i\x04\xe6\xb2'
p286
ssS'atcatalog___init__'
p287
(dp288
g6
(dp289
g31
S'atcatalog___init__.html'
p290
sg33
S'atcatalog/__init__'
p291
sg35
g13
(g14
g15
NtRp292
(dp293
g18
I1
sg19
I0
sg20
I6
sg21
I0
sg22
I0
sg23
I0
sg24
I0
sbssg25
S'\xe3\xaaO\xe9\x9e\xfdI\xa6]\x7fJ\xf6o\x1e\xb9\x8a'
p294
ssS'atcatalog_tests_testatcmodel'
p295
(dp296
S'index'
p297
(dp298
S'html_filename'
p299
S'atcatalog_tests_testatcmodel.html'
p300
sS'name'
p301
S'atcatalog/tests/testatcmodel'
p302
sS'nums'
p303
g13
(g14
g15
NtRp304
(dp305
g18
I1
sg19
I0
sg20
I115
sg21
I2
sg22
I0
sg23
I0
sg24
I0
sbssS'hash'
p306
S'\xa9X\xbbK\x0e~iTK\xdc\x1fK\x87\x8c\x0e\xca'
p307
ssS'atcatalog_data_origmodel'
p308
(dp309
S'index'
p310
(dp311
g101
S'atcatalog_data_origmodel.html'
p312
sg103
S'atcatalog/data/origmodel'
p313
sg105
g13
(g14
g15
NtRp314
(dp315
g18
I1
sg19
I0
sg20
I38
sg21
I0
sg22
I0
sg23
I38
sg24
I0
sbssS'hash'
p316
S'\x06\xe9\xe2b\xa1\xcc\x9c\xb6?\xa9#65\xc5\x19\xd3'
p317
ssS'atcatalog_data_csvinput'
p318
(dp319
S'index'
p320
(dp321
g31
S'atcatalog_data_csvinput.html'
p322
sg33
S'atcatalog/data/csvinput'
p323
sg35
g13
(g14
g15
NtRp324
(dp325
g18
I1
sg19
I2
sg20
I23
sg21
I2
sg22
I0
sg23
I23
sg24
I2
sbssS'hash'
p326
S'`Z\xd7\xa7\xe7\x7f\x8a\xc4\xb5\x17\x7f\xaej\xa1@;'
p327
ssS'atcatalog_tests_testsentence'
p328
(dp329
S'index'
p330
(dp331
g53
S'atcatalog_tests_testsentence.html'
p332
sg55
S'atcatalog/tests/testsentence'
p333
sg57
g13
(g14
g15
NtRp334
(dp335
g18
I1
sg19
I0
sg20
I42
sg21
I2
sg22
I0
sg23
I0
sg24
I0
sbssS'hash'
p336
S'c=B\x93\xdf\xde\xbe\x89!\xff\x9eK\xf2klT'
p337
ssS'atcatalog_model___init__'
p338
(dp339
g42
(dp340
g31
S'atcatalog_model___init__.html'
p341
sg33
S'atcatalog/model/__init__'
p342
sg35
g13
(g14
g15
NtRp343
(dp344
g18
I1
sg19
I0
sg20
I0
sg21
I0
sg22
I0
sg23
I0
sg24
I0
sbssg48
S'\x19g\xdfM\x1a\x019\xaf\x1baIeR\xe5u\xa7'
p345
ssS'atcatalog_tests_testormhelper'
p346
(dp347
S'index'
p348
(dp349
S'html_filename'
p350
S'atcatalog_tests_testormhelper.html'
p351
sS'name'
p352
S'atcatalog/tests/testormhelper'
p353
sS'nums'
p354
g13
(g14
g15
NtRp355
(dp356
g18
I1
sg19
I0
sg20
I67
sg21
I2
sg22
I0
sg23
I0
sg24
I0
sbssS'hash'
p357
S'1A\xa5so\xfcEq\xe3]\xb7+\x1b\x7f\xb7\xc9'
p358
sssS'version'
p359
S'3.7.1'
p360
sS'settings'
p361
S'm^\xd1\rt\xba\x05\xc7,Bm\x10@\xf0\\\x9a'
p362
sS'format'
p363
I1
s.